
Discarded input sections

 .text          0x0000000000000000        0x0 build/asm/header.s.o
 .bss           0x0000000000000000        0x0 build/asm/header.s.o
 .reginfo       0x0000000000000000       0x18 build/asm/header.s.o
 .MIPS.abiflags
                0x0000000000000000       0x18 build/asm/header.s.o
 .pdr           0x0000000000000000        0x0 build/asm/header.s.o
 .gnu.attributes
                0x0000000000000000       0x10 build/asm/header.s.o
 .data          0x0000000000000000        0x0 build/asm/1000.s.o
 .bss           0x0000000000000000        0x0 build/asm/1000.s.o
 .reginfo       0x0000000000000000       0x18 build/asm/1000.s.o
 .MIPS.abiflags
                0x0000000000000000       0x18 build/asm/1000.s.o
 .pdr           0x0000000000000000        0x0 build/asm/1000.s.o
 .gnu.attributes
                0x0000000000000000       0x10 build/asm/1000.s.o
 .options       0x0000000000000000       0x20 build/src/init.c.o
 .reginfo       0x0000000000000000       0x18 build/src/init.c.o
 .mdebug        0x0000000000000000     0xe42c build/src/init.c.o
 .options       0x0000000000000000       0x20 build/src/1130.c.o
 .reginfo       0x0000000000000000       0x18 build/src/1130.c.o
 .data          0x0000000000000000        0x0 build/asm/1850.s.o
 .bss           0x0000000000000000        0x0 build/asm/1850.s.o
 .reginfo       0x0000000000000000       0x18 build/asm/1850.s.o
 .MIPS.abiflags
                0x0000000000000000       0x18 build/asm/1850.s.o
 .pdr           0x0000000000000000        0x0 build/asm/1850.s.o
 .gnu.attributes
                0x0000000000000000       0x10 build/asm/1850.s.o
 .data          0x0000000000000000        0x0 build/asm/33D0.s.o
 .bss           0x0000000000000000        0x0 build/asm/33D0.s.o
 .reginfo       0x0000000000000000       0x18 build/asm/33D0.s.o
 .MIPS.abiflags
                0x0000000000000000       0x18 build/asm/33D0.s.o
 .pdr           0x0000000000000000        0x0 build/asm/33D0.s.o
 .gnu.attributes
                0x0000000000000000       0x10 build/asm/33D0.s.o
 .data          0x0000000000000000        0x0 build/asm/8650.s.o
 .bss           0x0000000000000000        0x0 build/asm/8650.s.o
 .reginfo       0x0000000000000000       0x18 build/asm/8650.s.o
 .MIPS.abiflags
                0x0000000000000000       0x18 build/asm/8650.s.o
 .pdr           0x0000000000000000        0x0 build/asm/8650.s.o
 .gnu.attributes
                0x0000000000000000       0x10 build/asm/8650.s.o
 .data          0x0000000000000000        0x0 build/asm/97B0.s.o
 .bss           0x0000000000000000        0x0 build/asm/97B0.s.o
 .reginfo       0x0000000000000000       0x18 build/asm/97B0.s.o
 .MIPS.abiflags
                0x0000000000000000       0x18 build/asm/97B0.s.o
 .pdr           0x0000000000000000        0x0 build/asm/97B0.s.o
 .gnu.attributes
                0x0000000000000000       0x10 build/asm/97B0.s.o
 .options       0x0000000000000000       0x20 build/src/C120.c.o
 .reginfo       0x0000000000000000       0x18 build/src/C120.c.o
 .data          0x0000000000000000        0x0 build/asm/C910.s.o
 .bss           0x0000000000000000        0x0 build/asm/C910.s.o
 .reginfo       0x0000000000000000       0x18 build/asm/C910.s.o
 .MIPS.abiflags
                0x0000000000000000       0x18 build/asm/C910.s.o
 .pdr           0x0000000000000000        0x0 build/asm/C910.s.o
 .gnu.attributes
                0x0000000000000000       0x10 build/asm/C910.s.o
 .options       0x0000000000000000       0x20 build/src/FA60.c.o
 .reginfo       0x0000000000000000       0x18 build/src/FA60.c.o
 .options       0x0000000000000000       0x20 build/src/shadow.c.o
 .reginfo       0x0000000000000000       0x18 build/src/shadow.c.o
 .data          0x0000000000000000        0x0 build/asm/12740.s.o
 .bss           0x0000000000000000        0x0 build/asm/12740.s.o
 .reginfo       0x0000000000000000       0x18 build/asm/12740.s.o
 .MIPS.abiflags
                0x0000000000000000       0x18 build/asm/12740.s.o
 .pdr           0x0000000000000000        0x0 build/asm/12740.s.o
 .gnu.attributes
                0x0000000000000000       0x10 build/asm/12740.s.o
 .data          0x0000000000000000        0x0 build/asm/15440.s.o
 .bss           0x0000000000000000        0x0 build/asm/15440.s.o
 .reginfo       0x0000000000000000       0x18 build/asm/15440.s.o
 .MIPS.abiflags
                0x0000000000000000       0x18 build/asm/15440.s.o
 .pdr           0x0000000000000000        0x0 build/asm/15440.s.o
 .gnu.attributes
                0x0000000000000000       0x10 build/asm/15440.s.o
 .data          0x0000000000000000        0x0 build/asm/191F0.s.o
 .bss           0x0000000000000000        0x0 build/asm/191F0.s.o
 .reginfo       0x0000000000000000       0x18 build/asm/191F0.s.o
 .MIPS.abiflags
                0x0000000000000000       0x18 build/asm/191F0.s.o
 .pdr           0x0000000000000000        0x0 build/asm/191F0.s.o
 .gnu.attributes
                0x0000000000000000       0x10 build/asm/191F0.s.o
 .data          0x0000000000000000        0x0 build/asm/1BCD0.s.o
 .bss           0x0000000000000000        0x0 build/asm/1BCD0.s.o
 .reginfo       0x0000000000000000       0x18 build/asm/1BCD0.s.o
 .MIPS.abiflags
                0x0000000000000000       0x18 build/asm/1BCD0.s.o
 .pdr           0x0000000000000000        0x0 build/asm/1BCD0.s.o
 .gnu.attributes
                0x0000000000000000       0x10 build/asm/1BCD0.s.o
 .data          0x0000000000000000        0x0 build/asm/1D160.s.o
 .bss           0x0000000000000000        0x0 build/asm/1D160.s.o
 .reginfo       0x0000000000000000       0x18 build/asm/1D160.s.o
 .MIPS.abiflags
                0x0000000000000000       0x18 build/asm/1D160.s.o
 .pdr           0x0000000000000000        0x0 build/asm/1D160.s.o
 .gnu.attributes
                0x0000000000000000       0x10 build/asm/1D160.s.o
 .data          0x0000000000000000        0x0 build/asm/1E4B0.s.o
 .bss           0x0000000000000000        0x0 build/asm/1E4B0.s.o
 .reginfo       0x0000000000000000       0x18 build/asm/1E4B0.s.o
 .MIPS.abiflags
                0x0000000000000000       0x18 build/asm/1E4B0.s.o
 .pdr           0x0000000000000000        0x0 build/asm/1E4B0.s.o
 .gnu.attributes
                0x0000000000000000       0x10 build/asm/1E4B0.s.o
 .options       0x0000000000000000       0x20 build/src/1EDF0.c.o
 .reginfo       0x0000000000000000       0x18 build/src/1EDF0.c.o
 .options       0x0000000000000000       0x20 build/src/inventory.c.o
 .reginfo       0x0000000000000000       0x18 build/src/inventory.c.o
 .data          0x0000000000000000        0x0 build/asm/screen_dim.s.o
 .bss           0x0000000000000000        0x0 build/asm/screen_dim.s.o
 .reginfo       0x0000000000000000       0x18 build/asm/screen_dim.s.o
 .MIPS.abiflags
                0x0000000000000000       0x18 build/asm/screen_dim.s.o
 .pdr           0x0000000000000000        0x0 build/asm/screen_dim.s.o
 .gnu.attributes
                0x0000000000000000       0x10 build/asm/screen_dim.s.o
 .data          0x0000000000000000        0x0 build/asm/23740.s.o
 .bss           0x0000000000000000        0x0 build/asm/23740.s.o
 .reginfo       0x0000000000000000       0x18 build/asm/23740.s.o
 .MIPS.abiflags
                0x0000000000000000       0x18 build/asm/23740.s.o
 .pdr           0x0000000000000000        0x0 build/asm/23740.s.o
 .gnu.attributes
                0x0000000000000000       0x10 build/asm/23740.s.o
 .data          0x0000000000000000        0x0 build/asm/srand.s.o
 .bss           0x0000000000000000        0x0 build/asm/srand.s.o
 .reginfo       0x0000000000000000       0x18 build/asm/srand.s.o
 .MIPS.abiflags
                0x0000000000000000       0x18 build/asm/srand.s.o
 .pdr           0x0000000000000000        0x0 build/asm/srand.s.o
 .gnu.attributes
                0x0000000000000000       0x10 build/asm/srand.s.o
 .data          0x0000000000000000        0x0 build/asm/24E60.s.o
 .bss           0x0000000000000000        0x0 build/asm/24E60.s.o
 .reginfo       0x0000000000000000       0x18 build/asm/24E60.s.o
 .MIPS.abiflags
                0x0000000000000000       0x18 build/asm/24E60.s.o
 .pdr           0x0000000000000000        0x0 build/asm/24E60.s.o
 .gnu.attributes
                0x0000000000000000       0x10 build/asm/24E60.s.o
 .options       0x0000000000000000       0x20 build/src/25290.c.o
 .reginfo       0x0000000000000000       0x18 build/src/25290.c.o
 .data          0x0000000000000000        0x0 build/asm/271F0.s.o
 .bss           0x0000000000000000        0x0 build/asm/271F0.s.o
 .reginfo       0x0000000000000000       0x18 build/asm/271F0.s.o
 .MIPS.abiflags
                0x0000000000000000       0x18 build/asm/271F0.s.o
 .pdr           0x0000000000000000        0x0 build/asm/271F0.s.o
 .gnu.attributes
                0x0000000000000000       0x10 build/asm/271F0.s.o
 .options       0x0000000000000000       0x20 build/src/27640.c.o
 .reginfo       0x0000000000000000       0x18 build/src/27640.c.o
 .data          0x0000000000000000        0x0 build/asm/2C110.s.o
 .bss           0x0000000000000000        0x0 build/asm/2C110.s.o
 .reginfo       0x0000000000000000       0x18 build/asm/2C110.s.o
 .MIPS.abiflags
                0x0000000000000000       0x18 build/asm/2C110.s.o
 .pdr           0x0000000000000000        0x0 build/asm/2C110.s.o
 .gnu.attributes
                0x0000000000000000       0x10 build/asm/2C110.s.o
 .data          0x0000000000000000        0x0 build/asm/2F1E0.s.o
 .bss           0x0000000000000000        0x0 build/asm/2F1E0.s.o
 .reginfo       0x0000000000000000       0x18 build/asm/2F1E0.s.o
 .MIPS.abiflags
                0x0000000000000000       0x18 build/asm/2F1E0.s.o
 .pdr           0x0000000000000000        0x0 build/asm/2F1E0.s.o
 .gnu.attributes
                0x0000000000000000       0x10 build/asm/2F1E0.s.o
 .data          0x0000000000000000        0x0 build/asm/31A10.s.o
 .bss           0x0000000000000000        0x0 build/asm/31A10.s.o
 .reginfo       0x0000000000000000       0x18 build/asm/31A10.s.o
 .MIPS.abiflags
                0x0000000000000000       0x18 build/asm/31A10.s.o
 .pdr           0x0000000000000000        0x0 build/asm/31A10.s.o
 .gnu.attributes
                0x0000000000000000       0x10 build/asm/31A10.s.o
 .data          0x0000000000000000        0x0 build/asm/31F00.s.o
 .bss           0x0000000000000000        0x0 build/asm/31F00.s.o
 .reginfo       0x0000000000000000       0x18 build/asm/31F00.s.o
 .MIPS.abiflags
                0x0000000000000000       0x18 build/asm/31F00.s.o
 .pdr           0x0000000000000000        0x0 build/asm/31F00.s.o
 .gnu.attributes
                0x0000000000000000       0x10 build/asm/31F00.s.o
 .data          0x0000000000000000        0x0 build/asm/32840.s.o
 .bss           0x0000000000000000        0x0 build/asm/32840.s.o
 .reginfo       0x0000000000000000       0x18 build/asm/32840.s.o
 .MIPS.abiflags
                0x0000000000000000       0x18 build/asm/32840.s.o
 .pdr           0x0000000000000000        0x0 build/asm/32840.s.o
 .gnu.attributes
                0x0000000000000000       0x10 build/asm/32840.s.o
 .data          0x0000000000000000        0x0 build/asm/328F0.s.o
 .bss           0x0000000000000000        0x0 build/asm/328F0.s.o
 .reginfo       0x0000000000000000       0x18 build/asm/328F0.s.o
 .MIPS.abiflags
                0x0000000000000000       0x18 build/asm/328F0.s.o
 .pdr           0x0000000000000000        0x0 build/asm/328F0.s.o
 .gnu.attributes
                0x0000000000000000       0x10 build/asm/328F0.s.o
 .data          0x0000000000000000        0x0 build/asm/initialize.s.o
 .bss           0x0000000000000000        0x0 build/asm/initialize.s.o
 .reginfo       0x0000000000000000       0x18 build/asm/initialize.s.o
 .MIPS.abiflags
                0x0000000000000000       0x18 build/asm/initialize.s.o
 .pdr           0x0000000000000000        0x0 build/asm/initialize.s.o
 .gnu.attributes
                0x0000000000000000       0x10 build/asm/initialize.s.o
 .data          0x0000000000000000        0x0 build/asm/createthread.s.o
 .bss           0x0000000000000000        0x0 build/asm/createthread.s.o
 .reginfo       0x0000000000000000       0x18 build/asm/createthread.s.o
 .MIPS.abiflags
                0x0000000000000000       0x18 build/asm/createthread.s.o
 .pdr           0x0000000000000000        0x0 build/asm/createthread.s.o
 .gnu.attributes
                0x0000000000000000       0x10 build/asm/createthread.s.o
 .data          0x0000000000000000        0x0 build/asm/startthread.s.o
 .bss           0x0000000000000000        0x0 build/asm/startthread.s.o
 .reginfo       0x0000000000000000       0x18 build/asm/startthread.s.o
 .MIPS.abiflags
                0x0000000000000000       0x18 build/asm/startthread.s.o
 .pdr           0x0000000000000000        0x0 build/asm/startthread.s.o
 .gnu.attributes
                0x0000000000000000       0x10 build/asm/startthread.s.o
 .data          0x0000000000000000        0x0 build/asm/pimgr.s.o
 .bss           0x0000000000000000        0x0 build/asm/pimgr.s.o
 .reginfo       0x0000000000000000       0x18 build/asm/pimgr.s.o
 .MIPS.abiflags
                0x0000000000000000       0x18 build/asm/pimgr.s.o
 .pdr           0x0000000000000000        0x0 build/asm/pimgr.s.o
 .gnu.attributes
                0x0000000000000000       0x10 build/asm/pimgr.s.o
 .data          0x0000000000000000        0x0 build/asm/createmesgqueue.s.o
 .bss           0x0000000000000000        0x0 build/asm/createmesgqueue.s.o
 .reginfo       0x0000000000000000       0x18 build/asm/createmesgqueue.s.o
 .MIPS.abiflags
                0x0000000000000000       0x18 build/asm/createmesgqueue.s.o
 .pdr           0x0000000000000000        0x0 build/asm/createmesgqueue.s.o
 .gnu.attributes
                0x0000000000000000       0x10 build/asm/createmesgqueue.s.o
 .data          0x0000000000000000        0x0 build/asm/visetevent.s.o
 .bss           0x0000000000000000        0x0 build/asm/visetevent.s.o
 .reginfo       0x0000000000000000       0x18 build/asm/visetevent.s.o
 .MIPS.abiflags
                0x0000000000000000       0x18 build/asm/visetevent.s.o
 .pdr           0x0000000000000000        0x0 build/asm/visetevent.s.o
 .gnu.attributes
                0x0000000000000000       0x10 build/asm/visetevent.s.o
 .data          0x0000000000000000        0x0 build/asm/seteventmesg.s.o
 .bss           0x0000000000000000        0x0 build/asm/seteventmesg.s.o
 .reginfo       0x0000000000000000       0x18 build/asm/seteventmesg.s.o
 .MIPS.abiflags
                0x0000000000000000       0x18 build/asm/seteventmesg.s.o
 .pdr           0x0000000000000000        0x0 build/asm/seteventmesg.s.o
 .gnu.attributes
                0x0000000000000000       0x10 build/asm/seteventmesg.s.o
 .data          0x0000000000000000        0x0 build/asm/recvmesg.s.o
 .bss           0x0000000000000000        0x0 build/asm/recvmesg.s.o
 .reginfo       0x0000000000000000       0x18 build/asm/recvmesg.s.o
 .MIPS.abiflags
                0x0000000000000000       0x18 build/asm/recvmesg.s.o
 .pdr           0x0000000000000000        0x0 build/asm/recvmesg.s.o
 .gnu.attributes
                0x0000000000000000       0x10 build/asm/recvmesg.s.o
 .data          0x0000000000000000        0x0 build/asm/setintmask.s.o
 .bss           0x0000000000000000        0x0 build/asm/setintmask.s.o
 .reginfo       0x0000000000000000       0x18 build/asm/setintmask.s.o
 .MIPS.abiflags
                0x0000000000000000       0x18 build/asm/setintmask.s.o
 .pdr           0x0000000000000000        0x0 build/asm/setintmask.s.o
 .gnu.attributes
                0x0000000000000000       0x10 build/asm/setintmask.s.o
 .data          0x0000000000000000        0x0 build/asm/sendmesg.s.o
 .bss           0x0000000000000000        0x0 build/asm/sendmesg.s.o
 .reginfo       0x0000000000000000       0x18 build/asm/sendmesg.s.o
 .MIPS.abiflags
                0x0000000000000000       0x18 build/asm/sendmesg.s.o
 .pdr           0x0000000000000000        0x0 build/asm/sendmesg.s.o
 .gnu.attributes
                0x0000000000000000       0x10 build/asm/sendmesg.s.o
 .data          0x0000000000000000        0x0 build/asm/writebackdcacheall.s.o
 .bss           0x0000000000000000        0x0 build/asm/writebackdcacheall.s.o
 .reginfo       0x0000000000000000       0x18 build/asm/writebackdcacheall.s.o
 .MIPS.abiflags
                0x0000000000000000       0x18 build/asm/writebackdcacheall.s.o
 .pdr           0x0000000000000000        0x0 build/asm/writebackdcacheall.s.o
 .gnu.attributes
                0x0000000000000000       0x10 build/asm/writebackdcacheall.s.o
 .data          0x0000000000000000        0x0 build/asm/sptaskyield.s.o
 .bss           0x0000000000000000        0x0 build/asm/sptaskyield.s.o
 .reginfo       0x0000000000000000       0x18 build/asm/sptaskyield.s.o
 .MIPS.abiflags
                0x0000000000000000       0x18 build/asm/sptaskyield.s.o
 .pdr           0x0000000000000000        0x0 build/asm/sptaskyield.s.o
 .gnu.attributes
                0x0000000000000000       0x10 build/asm/sptaskyield.s.o
 .data          0x0000000000000000        0x0 build/asm/sptaskyielded.s.o
 .bss           0x0000000000000000        0x0 build/asm/sptaskyielded.s.o
 .reginfo       0x0000000000000000       0x18 build/asm/sptaskyielded.s.o
 .MIPS.abiflags
                0x0000000000000000       0x18 build/asm/sptaskyielded.s.o
 .pdr           0x0000000000000000        0x0 build/asm/sptaskyielded.s.o
 .gnu.attributes
                0x0000000000000000       0x10 build/asm/sptaskyielded.s.o
 .data          0x0000000000000000        0x0 build/asm/sptask.s.o
 .bss           0x0000000000000000        0x0 build/asm/sptask.s.o
 .reginfo       0x0000000000000000       0x18 build/asm/sptask.s.o
 .MIPS.abiflags
                0x0000000000000000       0x18 build/asm/sptask.s.o
 .pdr           0x0000000000000000        0x0 build/asm/sptask.s.o
 .gnu.attributes
                0x0000000000000000       0x10 build/asm/sptask.s.o
 .data          0x0000000000000000        0x0 build/asm/virepeatline.s.o
 .bss           0x0000000000000000        0x0 build/asm/virepeatline.s.o
 .reginfo       0x0000000000000000       0x18 build/asm/virepeatline.s.o
 .MIPS.abiflags
                0x0000000000000000       0x18 build/asm/virepeatline.s.o
 .pdr           0x0000000000000000        0x0 build/asm/virepeatline.s.o
 .gnu.attributes
                0x0000000000000000       0x10 build/asm/virepeatline.s.o
 .data          0x0000000000000000        0x0 build/asm/viswapbuf.s.o
 .bss           0x0000000000000000        0x0 build/asm/viswapbuf.s.o
 .reginfo       0x0000000000000000       0x18 build/asm/viswapbuf.s.o
 .MIPS.abiflags
                0x0000000000000000       0x18 build/asm/viswapbuf.s.o
 .pdr           0x0000000000000000        0x0 build/asm/viswapbuf.s.o
 .gnu.attributes
                0x0000000000000000       0x10 build/asm/viswapbuf.s.o
 .data          0x0000000000000000        0x0 build/asm/vigetcurrframebuf.s.o
 .bss           0x0000000000000000        0x0 build/asm/vigetcurrframebuf.s.o
 .reginfo       0x0000000000000000       0x18 build/asm/vigetcurrframebuf.s.o
 .MIPS.abiflags
                0x0000000000000000       0x18 build/asm/vigetcurrframebuf.s.o
 .pdr           0x0000000000000000        0x0 build/asm/vigetcurrframebuf.s.o
 .gnu.attributes
                0x0000000000000000       0x10 build/asm/vigetcurrframebuf.s.o
 .data          0x0000000000000000        0x0 build/asm/vimgr.s.o
 .bss           0x0000000000000000        0x0 build/asm/vimgr.s.o
 .reginfo       0x0000000000000000       0x18 build/asm/vimgr.s.o
 .MIPS.abiflags
                0x0000000000000000       0x18 build/asm/vimgr.s.o
 .pdr           0x0000000000000000        0x0 build/asm/vimgr.s.o
 .gnu.attributes
                0x0000000000000000       0x10 build/asm/vimgr.s.o
 .data          0x0000000000000000        0x0 build/asm/visetmode.s.o
 .bss           0x0000000000000000        0x0 build/asm/visetmode.s.o
 .reginfo       0x0000000000000000       0x18 build/asm/visetmode.s.o
 .MIPS.abiflags
                0x0000000000000000       0x18 build/asm/visetmode.s.o
 .pdr           0x0000000000000000        0x0 build/asm/visetmode.s.o
 .gnu.attributes
                0x0000000000000000       0x10 build/asm/visetmode.s.o
 .data          0x0000000000000000        0x0 build/asm/visetspecial.s.o
 .bss           0x0000000000000000        0x0 build/asm/visetspecial.s.o
 .reginfo       0x0000000000000000       0x18 build/asm/visetspecial.s.o
 .MIPS.abiflags
                0x0000000000000000       0x18 build/asm/visetspecial.s.o
 .pdr           0x0000000000000000        0x0 build/asm/visetspecial.s.o
 .gnu.attributes
                0x0000000000000000       0x10 build/asm/visetspecial.s.o
 .data          0x0000000000000000        0x0 build/asm/virtualtophysical.s.o
 .bss           0x0000000000000000        0x0 build/asm/virtualtophysical.s.o
 .reginfo       0x0000000000000000       0x18 build/asm/virtualtophysical.s.o
 .MIPS.abiflags
                0x0000000000000000       0x18 build/asm/virtualtophysical.s.o
 .pdr           0x0000000000000000        0x0 build/asm/virtualtophysical.s.o
 .gnu.attributes
                0x0000000000000000       0x10 build/asm/virtualtophysical.s.o
 .data          0x0000000000000000        0x0 build/asm/writebackdcache.s.o
 .bss           0x0000000000000000        0x0 build/asm/writebackdcache.s.o
 .reginfo       0x0000000000000000       0x18 build/asm/writebackdcache.s.o
 .MIPS.abiflags
                0x0000000000000000       0x18 build/asm/writebackdcache.s.o
 .pdr           0x0000000000000000        0x0 build/asm/writebackdcache.s.o
 .gnu.attributes
                0x0000000000000000       0x10 build/asm/writebackdcache.s.o
 .data          0x0000000000000000        0x0 build/asm/gettime.s.o
 .bss           0x0000000000000000        0x0 build/asm/gettime.s.o
 .reginfo       0x0000000000000000       0x18 build/asm/gettime.s.o
 .MIPS.abiflags
                0x0000000000000000       0x18 build/asm/gettime.s.o
 .pdr           0x0000000000000000        0x0 build/asm/gettime.s.o
 .gnu.attributes
                0x0000000000000000       0x10 build/asm/gettime.s.o
 .data          0x0000000000000000        0x0 build/asm/sqrtf.s.o
 .bss           0x0000000000000000        0x0 build/asm/sqrtf.s.o
 .reginfo       0x0000000000000000       0x18 build/asm/sqrtf.s.o
 .MIPS.abiflags
                0x0000000000000000       0x18 build/asm/sqrtf.s.o
 .pdr           0x0000000000000000        0x0 build/asm/sqrtf.s.o
 .gnu.attributes
                0x0000000000000000       0x10 build/asm/sqrtf.s.o
 .data          0x0000000000000000        0x0 build/asm/position.s.o
 .bss           0x0000000000000000        0x0 build/asm/position.s.o
 .reginfo       0x0000000000000000       0x18 build/asm/position.s.o
 .MIPS.abiflags
                0x0000000000000000       0x18 build/asm/position.s.o
 .pdr           0x0000000000000000        0x0 build/asm/position.s.o
 .gnu.attributes
                0x0000000000000000       0x10 build/asm/position.s.o
 .data          0x0000000000000000        0x0 build/asm/sins.s.o
 .bss           0x0000000000000000        0x0 build/asm/sins.s.o
 .reginfo       0x0000000000000000       0x18 build/asm/sins.s.o
 .MIPS.abiflags
                0x0000000000000000       0x18 build/asm/sins.s.o
 .pdr           0x0000000000000000        0x0 build/asm/sins.s.o
 .gnu.attributes
                0x0000000000000000       0x10 build/asm/sins.s.o
 .data          0x0000000000000000        0x0 build/asm/mtxutil.s.o
 .bss           0x0000000000000000        0x0 build/asm/mtxutil.s.o
 .reginfo       0x0000000000000000       0x18 build/asm/mtxutil.s.o
 .MIPS.abiflags
                0x0000000000000000       0x18 build/asm/mtxutil.s.o
 .pdr           0x0000000000000000        0x0 build/asm/mtxutil.s.o
 .gnu.attributes
                0x0000000000000000       0x10 build/asm/mtxutil.s.o
 .data          0x0000000000000000        0x0 build/asm/mtxcatf.s.o
 .bss           0x0000000000000000        0x0 build/asm/mtxcatf.s.o
 .reginfo       0x0000000000000000       0x18 build/asm/mtxcatf.s.o
 .MIPS.abiflags
                0x0000000000000000       0x18 build/asm/mtxcatf.s.o
 .pdr           0x0000000000000000        0x0 build/asm/mtxcatf.s.o
 .gnu.attributes
                0x0000000000000000       0x10 build/asm/mtxcatf.s.o
 .data          0x0000000000000000        0x0 build/asm/sinf.s.o
 .bss           0x0000000000000000        0x0 build/asm/sinf.s.o
 .reginfo       0x0000000000000000       0x18 build/asm/sinf.s.o
 .MIPS.abiflags
                0x0000000000000000       0x18 build/asm/sinf.s.o
 .pdr           0x0000000000000000        0x0 build/asm/sinf.s.o
 .gnu.attributes
                0x0000000000000000       0x10 build/asm/sinf.s.o
 .data          0x0000000000000000        0x0 build/asm/ortho.s.o
 .bss           0x0000000000000000        0x0 build/asm/ortho.s.o
 .reginfo       0x0000000000000000       0x18 build/asm/ortho.s.o
 .MIPS.abiflags
                0x0000000000000000       0x18 build/asm/ortho.s.o
 .pdr           0x0000000000000000        0x0 build/asm/ortho.s.o
 .gnu.attributes
                0x0000000000000000       0x10 build/asm/ortho.s.o
 .data          0x0000000000000000        0x0 build/asm/perspective.s.o
 .bss           0x0000000000000000        0x0 build/asm/perspective.s.o
 .reginfo       0x0000000000000000       0x18 build/asm/perspective.s.o
 .MIPS.abiflags
                0x0000000000000000       0x18 build/asm/perspective.s.o
 .pdr           0x0000000000000000        0x0 build/asm/perspective.s.o
 .gnu.attributes
                0x0000000000000000       0x10 build/asm/perspective.s.o
 .data          0x0000000000000000        0x0 build/asm/lookatref.s.o
 .bss           0x0000000000000000        0x0 build/asm/lookatref.s.o
 .reginfo       0x0000000000000000       0x18 build/asm/lookatref.s.o
 .MIPS.abiflags
                0x0000000000000000       0x18 build/asm/lookatref.s.o
 .pdr           0x0000000000000000        0x0 build/asm/lookatref.s.o
 .gnu.attributes
                0x0000000000000000       0x10 build/asm/lookatref.s.o
 .data          0x0000000000000000        0x0 build/asm/translate.s.o
 .bss           0x0000000000000000        0x0 build/asm/translate.s.o
 .reginfo       0x0000000000000000       0x18 build/asm/translate.s.o
 .MIPS.abiflags
                0x0000000000000000       0x18 build/asm/translate.s.o
 .pdr           0x0000000000000000        0x0 build/asm/translate.s.o
 .gnu.attributes
                0x0000000000000000       0x10 build/asm/translate.s.o
 .data          0x0000000000000000        0x0 build/asm/cosf.s.o
 .bss           0x0000000000000000        0x0 build/asm/cosf.s.o
 .reginfo       0x0000000000000000       0x18 build/asm/cosf.s.o
 .MIPS.abiflags
                0x0000000000000000       0x18 build/asm/cosf.s.o
 .pdr           0x0000000000000000        0x0 build/asm/cosf.s.o
 .gnu.attributes
                0x0000000000000000       0x10 build/asm/cosf.s.o
 .data          0x0000000000000000        0x0 build/asm/sprintf.s.o
 .bss           0x0000000000000000        0x0 build/asm/sprintf.s.o
 .reginfo       0x0000000000000000       0x18 build/asm/sprintf.s.o
 .MIPS.abiflags
                0x0000000000000000       0x18 build/asm/sprintf.s.o
 .pdr           0x0000000000000000        0x0 build/asm/sprintf.s.o
 .gnu.attributes
                0x0000000000000000       0x10 build/asm/sprintf.s.o
 .data          0x0000000000000000        0x0 build/asm/invalicache.s.o
 .bss           0x0000000000000000        0x0 build/asm/invalicache.s.o
 .reginfo       0x0000000000000000       0x18 build/asm/invalicache.s.o
 .MIPS.abiflags
                0x0000000000000000       0x18 build/asm/invalicache.s.o
 .pdr           0x0000000000000000        0x0 build/asm/invalicache.s.o
 .gnu.attributes
                0x0000000000000000       0x10 build/asm/invalicache.s.o
 .data          0x0000000000000000        0x0 build/asm/invaldcache.s.o
 .bss           0x0000000000000000        0x0 build/asm/invaldcache.s.o
 .reginfo       0x0000000000000000       0x18 build/asm/invaldcache.s.o
 .MIPS.abiflags
                0x0000000000000000       0x18 build/asm/invaldcache.s.o
 .pdr           0x0000000000000000        0x0 build/asm/invaldcache.s.o
 .gnu.attributes
                0x0000000000000000       0x10 build/asm/invaldcache.s.o
 .data          0x0000000000000000        0x0 build/asm/pidma.s.o
 .bss           0x0000000000000000        0x0 build/asm/pidma.s.o
 .reginfo       0x0000000000000000       0x18 build/asm/pidma.s.o
 .MIPS.abiflags
                0x0000000000000000       0x18 build/asm/pidma.s.o
 .pdr           0x0000000000000000        0x0 build/asm/pidma.s.o
 .gnu.attributes
                0x0000000000000000       0x10 build/asm/pidma.s.o
 .data          0x0000000000000000        0x0 build/asm/heapinit.s.o
 .bss           0x0000000000000000        0x0 build/asm/heapinit.s.o
 .reginfo       0x0000000000000000       0x18 build/asm/heapinit.s.o
 .MIPS.abiflags
                0x0000000000000000       0x18 build/asm/heapinit.s.o
 .pdr           0x0000000000000000        0x0 build/asm/heapinit.s.o
 .gnu.attributes
                0x0000000000000000       0x10 build/asm/heapinit.s.o
 .data          0x0000000000000000        0x0 build/asm/heapalloc.s.o
 .bss           0x0000000000000000        0x0 build/asm/heapalloc.s.o
 .reginfo       0x0000000000000000       0x18 build/asm/heapalloc.s.o
 .MIPS.abiflags
                0x0000000000000000       0x18 build/asm/heapalloc.s.o
 .pdr           0x0000000000000000        0x0 build/asm/heapalloc.s.o
 .gnu.attributes
                0x0000000000000000       0x10 build/asm/heapalloc.s.o
 .data          0x0000000000000000        0x0 build/asm/aisetfreq.s.o
 .bss           0x0000000000000000        0x0 build/asm/aisetfreq.s.o
 .reginfo       0x0000000000000000       0x18 build/asm/aisetfreq.s.o
 .MIPS.abiflags
                0x0000000000000000       0x18 build/asm/aisetfreq.s.o
 .pdr           0x0000000000000000        0x0 build/asm/aisetfreq.s.o
 .gnu.attributes
                0x0000000000000000       0x10 build/asm/aisetfreq.s.o
 .data          0x0000000000000000        0x0 build/asm/seqpsetvol.s.o
 .bss           0x0000000000000000        0x0 build/asm/seqpsetvol.s.o
 .reginfo       0x0000000000000000       0x18 build/asm/seqpsetvol.s.o
 .MIPS.abiflags
                0x0000000000000000       0x18 build/asm/seqpsetvol.s.o
 .pdr           0x0000000000000000        0x0 build/asm/seqpsetvol.s.o
 .gnu.attributes
                0x0000000000000000       0x10 build/asm/seqpsetvol.s.o
 .data          0x0000000000000000        0x0 build/asm/synthesizer.s.o
 .bss           0x0000000000000000        0x0 build/asm/synthesizer.s.o
 .reginfo       0x0000000000000000       0x18 build/asm/synthesizer.s.o
 .MIPS.abiflags
                0x0000000000000000       0x18 build/asm/synthesizer.s.o
 .pdr           0x0000000000000000        0x0 build/asm/synthesizer.s.o
 .gnu.attributes
                0x0000000000000000       0x10 build/asm/synthesizer.s.o
 .data          0x0000000000000000        0x0 build/asm/aigetlen.s.o
 .bss           0x0000000000000000        0x0 build/asm/aigetlen.s.o
 .reginfo       0x0000000000000000       0x18 build/asm/aigetlen.s.o
 .MIPS.abiflags
                0x0000000000000000       0x18 build/asm/aigetlen.s.o
 .pdr           0x0000000000000000        0x0 build/asm/aigetlen.s.o
 .gnu.attributes
                0x0000000000000000       0x10 build/asm/aigetlen.s.o
 .data          0x0000000000000000        0x0 build/asm/aisetnextbuf.s.o
 .bss           0x0000000000000000        0x0 build/asm/aisetnextbuf.s.o
 .reginfo       0x0000000000000000       0x18 build/asm/aisetnextbuf.s.o
 .MIPS.abiflags
                0x0000000000000000       0x18 build/asm/aisetnextbuf.s.o
 .pdr           0x0000000000000000        0x0 build/asm/aisetnextbuf.s.o
 .gnu.attributes
                0x0000000000000000       0x10 build/asm/aisetnextbuf.s.o
 .data          0x0000000000000000        0x0 build/asm/n_alseqpgetvol.s.o
 .bss           0x0000000000000000        0x0 build/asm/n_alseqpgetvol.s.o
 .reginfo       0x0000000000000000       0x18 build/asm/n_alseqpgetvol.s.o
 .MIPS.abiflags
                0x0000000000000000       0x18 build/asm/n_alseqpgetvol.s.o
 .pdr           0x0000000000000000        0x0 build/asm/n_alseqpgetvol.s.o
 .gnu.attributes
                0x0000000000000000       0x10 build/asm/n_alseqpgetvol.s.o
 .data          0x0000000000000000        0x0 build/asm/csplayer.s.o
 .bss           0x0000000000000000        0x0 build/asm/csplayer.s.o
 .reginfo       0x0000000000000000       0x18 build/asm/csplayer.s.o
 .MIPS.abiflags
                0x0000000000000000       0x18 build/asm/csplayer.s.o
 .pdr           0x0000000000000000        0x0 build/asm/csplayer.s.o
 .gnu.attributes
                0x0000000000000000       0x10 build/asm/csplayer.s.o
 .data          0x0000000000000000        0x0 build/asm/bnkf.s.o
 .bss           0x0000000000000000        0x0 build/asm/bnkf.s.o
 .reginfo       0x0000000000000000       0x18 build/asm/bnkf.s.o
 .MIPS.abiflags
                0x0000000000000000       0x18 build/asm/bnkf.s.o
 .pdr           0x0000000000000000        0x0 build/asm/bnkf.s.o
 .gnu.attributes
                0x0000000000000000       0x10 build/asm/bnkf.s.o
 .data          0x0000000000000000        0x0 build/asm/seqpsetbank.s.o
 .bss           0x0000000000000000        0x0 build/asm/seqpsetbank.s.o
 .reginfo       0x0000000000000000       0x18 build/asm/seqpsetbank.s.o
 .MIPS.abiflags
                0x0000000000000000       0x18 build/asm/seqpsetbank.s.o
 .pdr           0x0000000000000000        0x0 build/asm/seqpsetbank.s.o
 .gnu.attributes
                0x0000000000000000       0x10 build/asm/seqpsetbank.s.o
 .data          0x0000000000000000        0x0 build/asm/cseq.s.o
 .bss           0x0000000000000000        0x0 build/asm/cseq.s.o
 .reginfo       0x0000000000000000       0x18 build/asm/cseq.s.o
 .MIPS.abiflags
                0x0000000000000000       0x18 build/asm/cseq.s.o
 .pdr           0x0000000000000000        0x0 build/asm/cseq.s.o
 .gnu.attributes
                0x0000000000000000       0x10 build/asm/cseq.s.o
 .data          0x0000000000000000        0x0 build/asm/cspsetseq.s.o
 .bss           0x0000000000000000        0x0 build/asm/cspsetseq.s.o
 .reginfo       0x0000000000000000       0x18 build/asm/cspsetseq.s.o
 .MIPS.abiflags
                0x0000000000000000       0x18 build/asm/cspsetseq.s.o
 .pdr           0x0000000000000000        0x0 build/asm/cspsetseq.s.o
 .gnu.attributes
                0x0000000000000000       0x10 build/asm/cspsetseq.s.o
 .data          0x0000000000000000        0x0 build/asm/seqpplay.s.o
 .bss           0x0000000000000000        0x0 build/asm/seqpplay.s.o
 .reginfo       0x0000000000000000       0x18 build/asm/seqpplay.s.o
 .MIPS.abiflags
                0x0000000000000000       0x18 build/asm/seqpplay.s.o
 .pdr           0x0000000000000000        0x0 build/asm/seqpplay.s.o
 .gnu.attributes
                0x0000000000000000       0x10 build/asm/seqpplay.s.o
 .data          0x0000000000000000        0x0 build/asm/seqpstop.s.o
 .bss           0x0000000000000000        0x0 build/asm/seqpstop.s.o
 .reginfo       0x0000000000000000       0x18 build/asm/seqpstop.s.o
 .MIPS.abiflags
                0x0000000000000000       0x18 build/asm/seqpstop.s.o
 .pdr           0x0000000000000000        0x0 build/asm/seqpstop.s.o
 .gnu.attributes
                0x0000000000000000       0x10 build/asm/seqpstop.s.o
 .data          0x0000000000000000        0x0 build/asm/seqpgetstate.s.o
 .bss           0x0000000000000000        0x0 build/asm/seqpgetstate.s.o
 .reginfo       0x0000000000000000       0x18 build/asm/seqpgetstate.s.o
 .MIPS.abiflags
                0x0000000000000000       0x18 build/asm/seqpgetstate.s.o
 .pdr           0x0000000000000000        0x0 build/asm/seqpgetstate.s.o
 .gnu.attributes
                0x0000000000000000       0x10 build/asm/seqpgetstate.s.o
 .data          0x0000000000000000        0x0 build/asm/sndplayer.s.o
 .bss           0x0000000000000000        0x0 build/asm/sndplayer.s.o
 .reginfo       0x0000000000000000       0x18 build/asm/sndplayer.s.o
 .MIPS.abiflags
                0x0000000000000000       0x18 build/asm/sndplayer.s.o
 .pdr           0x0000000000000000        0x0 build/asm/sndplayer.s.o
 .gnu.attributes
                0x0000000000000000       0x10 build/asm/sndplayer.s.o
 .data          0x0000000000000000        0x0 build/asm/sndpallocate.s.o
 .bss           0x0000000000000000        0x0 build/asm/sndpallocate.s.o
 .reginfo       0x0000000000000000       0x18 build/asm/sndpallocate.s.o
 .MIPS.abiflags
                0x0000000000000000       0x18 build/asm/sndpallocate.s.o
 .pdr           0x0000000000000000        0x0 build/asm/sndpallocate.s.o
 .gnu.attributes
                0x0000000000000000       0x10 build/asm/sndpallocate.s.o
 .data          0x0000000000000000        0x0 build/asm/sndpsetsound.s.o
 .bss           0x0000000000000000        0x0 build/asm/sndpsetsound.s.o
 .reginfo       0x0000000000000000       0x18 build/asm/sndpsetsound.s.o
 .MIPS.abiflags
                0x0000000000000000       0x18 build/asm/sndpsetsound.s.o
 .pdr           0x0000000000000000        0x0 build/asm/sndpsetsound.s.o
 .gnu.attributes
                0x0000000000000000       0x10 build/asm/sndpsetsound.s.o
 .data          0x0000000000000000        0x0 build/asm/sndpgetstate.s.o
 .bss           0x0000000000000000        0x0 build/asm/sndpgetstate.s.o
 .reginfo       0x0000000000000000       0x18 build/asm/sndpgetstate.s.o
 .MIPS.abiflags
                0x0000000000000000       0x18 build/asm/sndpgetstate.s.o
 .pdr           0x0000000000000000        0x0 build/asm/sndpgetstate.s.o
 .gnu.attributes
                0x0000000000000000       0x10 build/asm/sndpgetstate.s.o
 .data          0x0000000000000000        0x0 build/asm/sndplay.s.o
 .bss           0x0000000000000000        0x0 build/asm/sndplay.s.o
 .reginfo       0x0000000000000000       0x18 build/asm/sndplay.s.o
 .MIPS.abiflags
                0x0000000000000000       0x18 build/asm/sndplay.s.o
 .pdr           0x0000000000000000        0x0 build/asm/sndplay.s.o
 .gnu.attributes
                0x0000000000000000       0x10 build/asm/sndplay.s.o
 .data          0x0000000000000000        0x0 build/asm/sndpstop.s.o
 .bss           0x0000000000000000        0x0 build/asm/sndpstop.s.o
 .reginfo       0x0000000000000000       0x18 build/asm/sndpstop.s.o
 .MIPS.abiflags
                0x0000000000000000       0x18 build/asm/sndpstop.s.o
 .pdr           0x0000000000000000        0x0 build/asm/sndpstop.s.o
 .gnu.attributes
                0x0000000000000000       0x10 build/asm/sndpstop.s.o
 .data          0x0000000000000000        0x0 build/asm/sndpsetpitch.s.o
 .bss           0x0000000000000000        0x0 build/asm/sndpsetpitch.s.o
 .reginfo       0x0000000000000000       0x18 build/asm/sndpsetpitch.s.o
 .MIPS.abiflags
                0x0000000000000000       0x18 build/asm/sndpsetpitch.s.o
 .pdr           0x0000000000000000        0x0 build/asm/sndpsetpitch.s.o
 .gnu.attributes
                0x0000000000000000       0x10 build/asm/sndpsetpitch.s.o
 .data          0x0000000000000000        0x0 build/asm/sndpsetvol.s.o
 .bss           0x0000000000000000        0x0 build/asm/sndpsetvol.s.o
 .reginfo       0x0000000000000000       0x18 build/asm/sndpsetvol.s.o
 .MIPS.abiflags
                0x0000000000000000       0x18 build/asm/sndpsetvol.s.o
 .pdr           0x0000000000000000        0x0 build/asm/sndpsetvol.s.o
 .gnu.attributes
                0x0000000000000000       0x10 build/asm/sndpsetvol.s.o
 .data          0x0000000000000000        0x0 build/asm/sndpsetpan.s.o
 .bss           0x0000000000000000        0x0 build/asm/sndpsetpan.s.o
 .reginfo       0x0000000000000000       0x18 build/asm/sndpsetpan.s.o
 .MIPS.abiflags
                0x0000000000000000       0x18 build/asm/sndpsetpan.s.o
 .pdr           0x0000000000000000        0x0 build/asm/sndpsetpan.s.o
 .gnu.attributes
                0x0000000000000000       0x10 build/asm/sndpsetpan.s.o
 .data          0x0000000000000000        0x0 build/asm/ll.s.o
 .bss           0x0000000000000000        0x0 build/asm/ll.s.o
 .reginfo       0x0000000000000000       0x18 build/asm/ll.s.o
 .MIPS.abiflags
                0x0000000000000000       0x18 build/asm/ll.s.o
 .pdr           0x0000000000000000        0x0 build/asm/ll.s.o
 .gnu.attributes
                0x0000000000000000       0x10 build/asm/ll.s.o
 .data          0x0000000000000000        0x0 build/asm/pfsinitpak.s.o
 .bss           0x0000000000000000        0x0 build/asm/pfsinitpak.s.o
 .reginfo       0x0000000000000000       0x18 build/asm/pfsinitpak.s.o
 .MIPS.abiflags
                0x0000000000000000       0x18 build/asm/pfsinitpak.s.o
 .pdr           0x0000000000000000        0x0 build/asm/pfsinitpak.s.o
 .gnu.attributes
                0x0000000000000000       0x10 build/asm/pfsinitpak.s.o
 .data          0x0000000000000000        0x0 build/asm/motor.s.o
 .bss           0x0000000000000000        0x0 build/asm/motor.s.o
 .reginfo       0x0000000000000000       0x18 build/asm/motor.s.o
 .MIPS.abiflags
                0x0000000000000000       0x18 build/asm/motor.s.o
 .pdr           0x0000000000000000        0x0 build/asm/motor.s.o
 .gnu.attributes
                0x0000000000000000       0x10 build/asm/motor.s.o
 .data          0x0000000000000000        0x0 build/asm/deletedfuncs.s.o
 .bss           0x0000000000000000        0x0 build/asm/deletedfuncs.s.o
 .reginfo       0x0000000000000000       0x18 build/asm/deletedfuncs.s.o
 .MIPS.abiflags
                0x0000000000000000       0x18 build/asm/deletedfuncs.s.o
 .pdr           0x0000000000000000        0x0 build/asm/deletedfuncs.s.o
 .gnu.attributes
                0x0000000000000000       0x10 build/asm/deletedfuncs.s.o
 .data          0x0000000000000000        0x0 build/asm/controller.s.o
 .bss           0x0000000000000000        0x0 build/asm/controller.s.o
 .reginfo       0x0000000000000000       0x18 build/asm/controller.s.o
 .MIPS.abiflags
                0x0000000000000000       0x18 build/asm/controller.s.o
 .pdr           0x0000000000000000        0x0 build/asm/controller.s.o
 .gnu.attributes
                0x0000000000000000       0x10 build/asm/controller.s.o
 .data          0x0000000000000000        0x0 build/asm/contsetch.s.o
 .bss           0x0000000000000000        0x0 build/asm/contsetch.s.o
 .reginfo       0x0000000000000000       0x18 build/asm/contsetch.s.o
 .MIPS.abiflags
                0x0000000000000000       0x18 build/asm/contsetch.s.o
 .pdr           0x0000000000000000        0x0 build/asm/contsetch.s.o
 .gnu.attributes
                0x0000000000000000       0x10 build/asm/contsetch.s.o
 .data          0x0000000000000000        0x0 build/asm/contreaddata.s.o
 .bss           0x0000000000000000        0x0 build/asm/contreaddata.s.o
 .reginfo       0x0000000000000000       0x18 build/asm/contreaddata.s.o
 .MIPS.abiflags
                0x0000000000000000       0x18 build/asm/contreaddata.s.o
 .pdr           0x0000000000000000        0x0 build/asm/contreaddata.s.o
 .gnu.attributes
                0x0000000000000000       0x10 build/asm/contreaddata.s.o
 .data          0x0000000000000000        0x0 build/asm/pfsfilestate.s.o
 .bss           0x0000000000000000        0x0 build/asm/pfsfilestate.s.o
 .reginfo       0x0000000000000000       0x18 build/asm/pfsfilestate.s.o
 .MIPS.abiflags
                0x0000000000000000       0x18 build/asm/pfsfilestate.s.o
 .pdr           0x0000000000000000        0x0 build/asm/pfsfilestate.s.o
 .gnu.attributes
                0x0000000000000000       0x10 build/asm/pfsfilestate.s.o
 .data          0x0000000000000000        0x0 build/asm/pfsfreeblocks.s.o
 .bss           0x0000000000000000        0x0 build/asm/pfsfreeblocks.s.o
 .reginfo       0x0000000000000000       0x18 build/asm/pfsfreeblocks.s.o
 .MIPS.abiflags
                0x0000000000000000       0x18 build/asm/pfsfreeblocks.s.o
 .pdr           0x0000000000000000        0x0 build/asm/pfsfreeblocks.s.o
 .gnu.attributes
                0x0000000000000000       0x10 build/asm/pfsfreeblocks.s.o
 .data          0x0000000000000000        0x0 build/asm/pfsallocatefile.s.o
 .bss           0x0000000000000000        0x0 build/asm/pfsallocatefile.s.o
 .reginfo       0x0000000000000000       0x18 build/asm/pfsallocatefile.s.o
 .MIPS.abiflags
                0x0000000000000000       0x18 build/asm/pfsallocatefile.s.o
 .pdr           0x0000000000000000        0x0 build/asm/pfsallocatefile.s.o
 .gnu.attributes
                0x0000000000000000       0x10 build/asm/pfsallocatefile.s.o
 .data          0x0000000000000000        0x0 build/asm/pfsdeletefile.s.o
 .bss           0x0000000000000000        0x0 build/asm/pfsdeletefile.s.o
 .reginfo       0x0000000000000000       0x18 build/asm/pfsdeletefile.s.o
 .MIPS.abiflags
                0x0000000000000000       0x18 build/asm/pfsdeletefile.s.o
 .pdr           0x0000000000000000        0x0 build/asm/pfsdeletefile.s.o
 .gnu.attributes
                0x0000000000000000       0x10 build/asm/pfsdeletefile.s.o
 .data          0x0000000000000000        0x0 build/asm/pfsreadwritefile.s.o
 .bss           0x0000000000000000        0x0 build/asm/pfsreadwritefile.s.o
 .reginfo       0x0000000000000000       0x18 build/asm/pfsreadwritefile.s.o
 .MIPS.abiflags
                0x0000000000000000       0x18 build/asm/pfsreadwritefile.s.o
 .pdr           0x0000000000000000        0x0 build/asm/pfsreadwritefile.s.o
 .gnu.attributes
                0x0000000000000000       0x10 build/asm/pfsreadwritefile.s.o
 .data          0x0000000000000000        0x0 build/asm/__osGetId.s.o
 .bss           0x0000000000000000        0x0 build/asm/__osGetId.s.o
 .reginfo       0x0000000000000000       0x18 build/asm/__osGetId.s.o
 .MIPS.abiflags
                0x0000000000000000       0x18 build/asm/__osGetId.s.o
 .pdr           0x0000000000000000        0x0 build/asm/__osGetId.s.o
 .gnu.attributes
                0x0000000000000000       0x10 build/asm/__osGetId.s.o
 .data          0x0000000000000000        0x0 build/asm/pfsnumfiles.s.o
 .bss           0x0000000000000000        0x0 build/asm/pfsnumfiles.s.o
 .reginfo       0x0000000000000000       0x18 build/asm/pfsnumfiles.s.o
 .MIPS.abiflags
                0x0000000000000000       0x18 build/asm/pfsnumfiles.s.o
 .pdr           0x0000000000000000        0x0 build/asm/pfsnumfiles.s.o
 .gnu.attributes
                0x0000000000000000       0x10 build/asm/pfsnumfiles.s.o
 .data          0x0000000000000000        0x0 build/asm/contquery.s.o
 .bss           0x0000000000000000        0x0 build/asm/contquery.s.o
 .reginfo       0x0000000000000000       0x18 build/asm/contquery.s.o
 .MIPS.abiflags
                0x0000000000000000       0x18 build/asm/contquery.s.o
 .pdr           0x0000000000000000        0x0 build/asm/contquery.s.o
 .gnu.attributes
                0x0000000000000000       0x10 build/asm/contquery.s.o
 .data          0x0000000000000000        0x0 build/asm/setsr.s.o
 .bss           0x0000000000000000        0x0 build/asm/setsr.s.o
 .reginfo       0x0000000000000000       0x18 build/asm/setsr.s.o
 .MIPS.abiflags
                0x0000000000000000       0x18 build/asm/setsr.s.o
 .pdr           0x0000000000000000        0x0 build/asm/setsr.s.o
 .gnu.attributes
                0x0000000000000000       0x10 build/asm/setsr.s.o
 .data          0x0000000000000000        0x0 build/asm/getsr.s.o
 .bss           0x0000000000000000        0x0 build/asm/getsr.s.o
 .reginfo       0x0000000000000000       0x18 build/asm/getsr.s.o
 .MIPS.abiflags
                0x0000000000000000       0x18 build/asm/getsr.s.o
 .pdr           0x0000000000000000        0x0 build/asm/getsr.s.o
 .gnu.attributes
                0x0000000000000000       0x10 build/asm/getsr.s.o
 .data          0x0000000000000000        0x0 build/asm/setfpccsr.s.o
 .bss           0x0000000000000000        0x0 build/asm/setfpccsr.s.o
 .reginfo       0x0000000000000000       0x18 build/asm/setfpccsr.s.o
 .MIPS.abiflags
                0x0000000000000000       0x18 build/asm/setfpccsr.s.o
 .pdr           0x0000000000000000        0x0 build/asm/setfpccsr.s.o
 .gnu.attributes
                0x0000000000000000       0x10 build/asm/setfpccsr.s.o
 .data          0x0000000000000000        0x0 build/asm/sprawread.s.o
 .bss           0x0000000000000000        0x0 build/asm/sprawread.s.o
 .reginfo       0x0000000000000000       0x18 build/asm/sprawread.s.o
 .MIPS.abiflags
                0x0000000000000000       0x18 build/asm/sprawread.s.o
 .pdr           0x0000000000000000        0x0 build/asm/sprawread.s.o
 .gnu.attributes
                0x0000000000000000       0x10 build/asm/sprawread.s.o
 .data          0x0000000000000000        0x0 build/asm/sprawwrite.s.o
 .bss           0x0000000000000000        0x0 build/asm/sprawwrite.s.o
 .reginfo       0x0000000000000000       0x18 build/asm/sprawwrite.s.o
 .MIPS.abiflags
                0x0000000000000000       0x18 build/asm/sprawwrite.s.o
 .pdr           0x0000000000000000        0x0 build/asm/sprawwrite.s.o
 .gnu.attributes
                0x0000000000000000       0x10 build/asm/sprawwrite.s.o
 .data          0x0000000000000000        0x0 build/asm/exceptasm.s.o
 .bss           0x0000000000000000        0x0 build/asm/exceptasm.s.o
 .reginfo       0x0000000000000000       0x18 build/asm/exceptasm.s.o
 .MIPS.abiflags
                0x0000000000000000       0x18 build/asm/exceptasm.s.o
 .pdr           0x0000000000000000        0x0 build/asm/exceptasm.s.o
 .gnu.attributes
                0x0000000000000000       0x10 build/asm/exceptasm.s.o
 .data          0x0000000000000000        0x0 build/asm/maptlbrdb.s.o
 .bss           0x0000000000000000        0x0 build/asm/maptlbrdb.s.o
 .reginfo       0x0000000000000000       0x18 build/asm/maptlbrdb.s.o
 .MIPS.abiflags
                0x0000000000000000       0x18 build/asm/maptlbrdb.s.o
 .pdr           0x0000000000000000        0x0 build/asm/maptlbrdb.s.o
 .gnu.attributes
                0x0000000000000000       0x10 build/asm/maptlbrdb.s.o
 .data          0x0000000000000000        0x0 build/asm/pirawread.s.o
 .bss           0x0000000000000000        0x0 build/asm/pirawread.s.o
 .reginfo       0x0000000000000000       0x18 build/asm/pirawread.s.o
 .MIPS.abiflags
                0x0000000000000000       0x18 build/asm/pirawread.s.o
 .pdr           0x0000000000000000        0x0 build/asm/pirawread.s.o
 .gnu.attributes
                0x0000000000000000       0x10 build/asm/pirawread.s.o
 .data          0x0000000000000000        0x0 build/asm/bzero.s.o
 .bss           0x0000000000000000        0x0 build/asm/bzero.s.o
 .reginfo       0x0000000000000000       0x18 build/asm/bzero.s.o
 .MIPS.abiflags
                0x0000000000000000       0x18 build/asm/bzero.s.o
 .pdr           0x0000000000000000        0x0 build/asm/bzero.s.o
 .gnu.attributes
                0x0000000000000000       0x10 build/asm/bzero.s.o
 .data          0x0000000000000000        0x0 build/asm/interrupt.s.o
 .bss           0x0000000000000000        0x0 build/asm/interrupt.s.o
 .reginfo       0x0000000000000000       0x18 build/asm/interrupt.s.o
 .MIPS.abiflags
                0x0000000000000000       0x18 build/asm/interrupt.s.o
 .pdr           0x0000000000000000        0x0 build/asm/interrupt.s.o
 .gnu.attributes
                0x0000000000000000       0x10 build/asm/interrupt.s.o
 .data          0x0000000000000000        0x0 build/asm/thread.s.o
 .bss           0x0000000000000000        0x0 build/asm/thread.s.o
 .reginfo       0x0000000000000000       0x18 build/asm/thread.s.o
 .MIPS.abiflags
                0x0000000000000000       0x18 build/asm/thread.s.o
 .pdr           0x0000000000000000        0x0 build/asm/thread.s.o
 .gnu.attributes
                0x0000000000000000       0x10 build/asm/thread.s.o
 .data          0x0000000000000000        0x0 build/asm/cartrominit.s.o
 .bss           0x0000000000000000        0x0 build/asm/cartrominit.s.o
 .reginfo       0x0000000000000000       0x18 build/asm/cartrominit.s.o
 .MIPS.abiflags
                0x0000000000000000       0x18 build/asm/cartrominit.s.o
 .pdr           0x0000000000000000        0x0 build/asm/cartrominit.s.o
 .gnu.attributes
                0x0000000000000000       0x10 build/asm/cartrominit.s.o
 .data          0x0000000000000000        0x0 build/asm/leodiskinit.s.o
 .bss           0x0000000000000000        0x0 build/asm/leodiskinit.s.o
 .reginfo       0x0000000000000000       0x18 build/asm/leodiskinit.s.o
 .MIPS.abiflags
                0x0000000000000000       0x18 build/asm/leodiskinit.s.o
 .pdr           0x0000000000000000        0x0 build/asm/leodiskinit.s.o
 .gnu.attributes
                0x0000000000000000       0x10 build/asm/leodiskinit.s.o
 .data          0x0000000000000000        0x0 build/asm/siacsDuplicate.s.o
 .bss           0x0000000000000000        0x0 build/asm/siacsDuplicate.s.o
 .reginfo       0x0000000000000000       0x18 build/asm/siacsDuplicate.s.o
 .MIPS.abiflags
                0x0000000000000000       0x18 build/asm/siacsDuplicate.s.o
 .pdr           0x0000000000000000        0x0 build/asm/siacsDuplicate.s.o
 .gnu.attributes
                0x0000000000000000       0x10 build/asm/siacsDuplicate.s.o
 .data          0x0000000000000000        0x0 build/asm/getthreadpri.s.o
 .bss           0x0000000000000000        0x0 build/asm/getthreadpri.s.o
 .reginfo       0x0000000000000000       0x18 build/asm/getthreadpri.s.o
 .MIPS.abiflags
                0x0000000000000000       0x18 build/asm/getthreadpri.s.o
 .pdr           0x0000000000000000        0x0 build/asm/getthreadpri.s.o
 .gnu.attributes
                0x0000000000000000       0x10 build/asm/getthreadpri.s.o
 .data          0x0000000000000000        0x0 build/asm/setthreadpri.s.o
 .bss           0x0000000000000000        0x0 build/asm/setthreadpri.s.o
 .reginfo       0x0000000000000000       0x18 build/asm/setthreadpri.s.o
 .MIPS.abiflags
                0x0000000000000000       0x18 build/asm/setthreadpri.s.o
 .pdr           0x0000000000000000        0x0 build/asm/setthreadpri.s.o
 .gnu.attributes
                0x0000000000000000       0x10 build/asm/setthreadpri.s.o
 .data          0x0000000000000000        0x0 build/asm/pirawdma.s.o
 .bss           0x0000000000000000        0x0 build/asm/pirawdma.s.o
 .reginfo       0x0000000000000000       0x18 build/asm/pirawdma.s.o
 .MIPS.abiflags
                0x0000000000000000       0x18 build/asm/pirawdma.s.o
 .pdr           0x0000000000000000        0x0 build/asm/pirawdma.s.o
 .gnu.attributes
                0x0000000000000000       0x10 build/asm/pirawdma.s.o
 .data          0x0000000000000000        0x0 build/asm/epiramdma.s.o
 .bss           0x0000000000000000        0x0 build/asm/epiramdma.s.o
 .reginfo       0x0000000000000000       0x18 build/asm/epiramdma.s.o
 .MIPS.abiflags
                0x0000000000000000       0x18 build/asm/epiramdma.s.o
 .pdr           0x0000000000000000        0x0 build/asm/epiramdma.s.o
 .gnu.attributes
                0x0000000000000000       0x10 build/asm/epiramdma.s.o
 .data          0x0000000000000000        0x0 build/asm/devmgr.s.o
 .bss           0x0000000000000000        0x0 build/asm/devmgr.s.o
 .reginfo       0x0000000000000000       0x18 build/asm/devmgr.s.o
 .MIPS.abiflags
                0x0000000000000000       0x18 build/asm/devmgr.s.o
 .pdr           0x0000000000000000        0x0 build/asm/devmgr.s.o
 .gnu.attributes
                0x0000000000000000       0x10 build/asm/devmgr.s.o
 .data          0x0000000000000000        0x0 build/asm/vi.s.o
 .bss           0x0000000000000000        0x0 build/asm/vi.s.o
 .reginfo       0x0000000000000000       0x18 build/asm/vi.s.o
 .MIPS.abiflags
                0x0000000000000000       0x18 build/asm/vi.s.o
 .pdr           0x0000000000000000        0x0 build/asm/vi.s.o
 .gnu.attributes
                0x0000000000000000       0x10 build/asm/vi.s.o
 .data          0x0000000000000000        0x0 build/asm/spsetstat.s.o
 .bss           0x0000000000000000        0x0 build/asm/spsetstat.s.o
 .reginfo       0x0000000000000000       0x18 build/asm/spsetstat.s.o
 .MIPS.abiflags
                0x0000000000000000       0x18 build/asm/spsetstat.s.o
 .pdr           0x0000000000000000        0x0 build/asm/spsetstat.s.o
 .gnu.attributes
                0x0000000000000000       0x10 build/asm/spsetstat.s.o
 .data          0x0000000000000000        0x0 build/asm/spgetstat.s.o
 .bss           0x0000000000000000        0x0 build/asm/spgetstat.s.o
 .reginfo       0x0000000000000000       0x18 build/asm/spgetstat.s.o
 .MIPS.abiflags
                0x0000000000000000       0x18 build/asm/spgetstat.s.o
 .pdr           0x0000000000000000        0x0 build/asm/spgetstat.s.o
 .gnu.attributes
                0x0000000000000000       0x10 build/asm/spgetstat.s.o
 .data          0x0000000000000000        0x0 build/asm/bcopy.s.o
 .bss           0x0000000000000000        0x0 build/asm/bcopy.s.o
 .reginfo       0x0000000000000000       0x18 build/asm/bcopy.s.o
 .MIPS.abiflags
                0x0000000000000000       0x18 build/asm/bcopy.s.o
 .pdr           0x0000000000000000        0x0 build/asm/bcopy.s.o
 .gnu.attributes
                0x0000000000000000       0x10 build/asm/bcopy.s.o
 .data          0x0000000000000000        0x0 build/asm/spsetpc.s.o
 .bss           0x0000000000000000        0x0 build/asm/spsetpc.s.o
 .reginfo       0x0000000000000000       0x18 build/asm/spsetpc.s.o
 .MIPS.abiflags
                0x0000000000000000       0x18 build/asm/spsetpc.s.o
 .pdr           0x0000000000000000        0x0 build/asm/spsetpc.s.o
 .gnu.attributes
                0x0000000000000000       0x10 build/asm/spsetpc.s.o
 .data          0x0000000000000000        0x0 build/asm/sprawdma.s.o
 .bss           0x0000000000000000        0x0 build/asm/sprawdma.s.o
 .reginfo       0x0000000000000000       0x18 build/asm/sprawdma.s.o
 .MIPS.abiflags
                0x0000000000000000       0x18 build/asm/sprawdma.s.o
 .pdr           0x0000000000000000        0x0 build/asm/sprawdma.s.o
 .gnu.attributes
                0x0000000000000000       0x10 build/asm/sprawdma.s.o
 .data          0x0000000000000000        0x0 build/asm/sp.s.o
 .bss           0x0000000000000000        0x0 build/asm/sp.s.o
 .reginfo       0x0000000000000000       0x18 build/asm/sp.s.o
 .MIPS.abiflags
                0x0000000000000000       0x18 build/asm/sp.s.o
 .pdr           0x0000000000000000        0x0 build/asm/sp.s.o
 .gnu.attributes
                0x0000000000000000       0x10 build/asm/sp.s.o
 .data          0x0000000000000000        0x0 build/asm/timerintr.s.o
 .bss           0x0000000000000000        0x0 build/asm/timerintr.s.o
 .reginfo       0x0000000000000000       0x18 build/asm/timerintr.s.o
 .MIPS.abiflags
                0x0000000000000000       0x18 build/asm/timerintr.s.o
 .pdr           0x0000000000000000        0x0 build/asm/timerintr.s.o
 .gnu.attributes
                0x0000000000000000       0x10 build/asm/timerintr.s.o
 .data          0x0000000000000000        0x0 build/asm/vigetcurrcontext.s.o
 .bss           0x0000000000000000        0x0 build/asm/vigetcurrcontext.s.o
 .reginfo       0x0000000000000000       0x18 build/asm/vigetcurrcontext.s.o
 .MIPS.abiflags
                0x0000000000000000       0x18 build/asm/vigetcurrcontext.s.o
 .pdr           0x0000000000000000        0x0 build/asm/vigetcurrcontext.s.o
 .gnu.attributes
                0x0000000000000000       0x10 build/asm/vigetcurrcontext.s.o
 .data          0x0000000000000000        0x0 build/asm/viswapcontext.s.o
 .bss           0x0000000000000000        0x0 build/asm/viswapcontext.s.o
 .reginfo       0x0000000000000000       0x18 build/asm/viswapcontext.s.o
 .MIPS.abiflags
                0x0000000000000000       0x18 build/asm/viswapcontext.s.o
 .pdr           0x0000000000000000        0x0 build/asm/viswapcontext.s.o
 .gnu.attributes
                0x0000000000000000       0x10 build/asm/viswapcontext.s.o
 .data          0x0000000000000000        0x0 build/asm/getcount.s.o
 .bss           0x0000000000000000        0x0 build/asm/getcount.s.o
 .reginfo       0x0000000000000000       0x18 build/asm/getcount.s.o
 .MIPS.abiflags
                0x0000000000000000       0x18 build/asm/getcount.s.o
 .pdr           0x0000000000000000        0x0 build/asm/getcount.s.o
 .gnu.attributes
                0x0000000000000000       0x10 build/asm/getcount.s.o
 .data          0x0000000000000000        0x0 build/asm/probetlb.s.o
 .bss           0x0000000000000000        0x0 build/asm/probetlb.s.o
 .reginfo       0x0000000000000000       0x18 build/asm/probetlb.s.o
 .MIPS.abiflags
                0x0000000000000000       0x18 build/asm/probetlb.s.o
 .pdr           0x0000000000000000        0x0 build/asm/probetlb.s.o
 .gnu.attributes
                0x0000000000000000       0x10 build/asm/probetlb.s.o
 .data          0x0000000000000000        0x0 build/asm/xprintf.s.o
 .bss           0x0000000000000000        0x0 build/asm/xprintf.s.o
 .reginfo       0x0000000000000000       0x18 build/asm/xprintf.s.o
 .MIPS.abiflags
                0x0000000000000000       0x18 build/asm/xprintf.s.o
 .pdr           0x0000000000000000        0x0 build/asm/xprintf.s.o
 .gnu.attributes
                0x0000000000000000       0x10 build/asm/xprintf.s.o
 .data          0x0000000000000000        0x0 build/asm/string.s.o
 .bss           0x0000000000000000        0x0 build/asm/string.s.o
 .reginfo       0x0000000000000000       0x18 build/asm/string.s.o
 .MIPS.abiflags
                0x0000000000000000       0x18 build/asm/string.s.o
 .pdr           0x0000000000000000        0x0 build/asm/string.s.o
 .gnu.attributes
                0x0000000000000000       0x10 build/asm/string.s.o
 .data          0x0000000000000000        0x0 build/asm/jammesg.s.o
 .bss           0x0000000000000000        0x0 build/asm/jammesg.s.o
 .reginfo       0x0000000000000000       0x18 build/asm/jammesg.s.o
 .MIPS.abiflags
                0x0000000000000000       0x18 build/asm/jammesg.s.o
 .pdr           0x0000000000000000        0x0 build/asm/jammesg.s.o
 .gnu.attributes
                0x0000000000000000       0x10 build/asm/jammesg.s.o
 .data          0x0000000000000000        0x0 build/asm/syndelete.s.o
 .bss           0x0000000000000000        0x0 build/asm/syndelete.s.o
 .reginfo       0x0000000000000000       0x18 build/asm/syndelete.s.o
 .MIPS.abiflags
                0x0000000000000000       0x18 build/asm/syndelete.s.o
 .pdr           0x0000000000000000        0x0 build/asm/syndelete.s.o
 .gnu.attributes
                0x0000000000000000       0x10 build/asm/syndelete.s.o
 .data          0x0000000000000000        0x0 build/asm/event.s.o
 .bss           0x0000000000000000        0x0 build/asm/event.s.o
 .reginfo       0x0000000000000000       0x18 build/asm/event.s.o
 .MIPS.abiflags
                0x0000000000000000       0x18 build/asm/event.s.o
 .pdr           0x0000000000000000        0x0 build/asm/event.s.o
 .gnu.attributes
                0x0000000000000000       0x10 build/asm/event.s.o
 .data          0x0000000000000000        0x0 build/asm/drvrNew.s.o
 .bss           0x0000000000000000        0x0 build/asm/drvrNew.s.o
 .reginfo       0x0000000000000000       0x18 build/asm/drvrNew.s.o
 .MIPS.abiflags
                0x0000000000000000       0x18 build/asm/drvrNew.s.o
 .pdr           0x0000000000000000        0x0 build/asm/drvrNew.s.o
 .gnu.attributes
                0x0000000000000000       0x10 build/asm/drvrNew.s.o
 .data          0x0000000000000000        0x0 build/asm/synallocfx.s.o
 .bss           0x0000000000000000        0x0 build/asm/synallocfx.s.o
 .reginfo       0x0000000000000000       0x18 build/asm/synallocfx.s.o
 .MIPS.abiflags
                0x0000000000000000       0x18 build/asm/synallocfx.s.o
 .pdr           0x0000000000000000        0x0 build/asm/synallocfx.s.o
 .gnu.attributes
                0x0000000000000000       0x10 build/asm/synallocfx.s.o
 .data          0x0000000000000000        0x0 build/asm/mainbus.s.o
 .bss           0x0000000000000000        0x0 build/asm/mainbus.s.o
 .reginfo       0x0000000000000000       0x18 build/asm/mainbus.s.o
 .MIPS.abiflags
                0x0000000000000000       0x18 build/asm/mainbus.s.o
 .pdr           0x0000000000000000        0x0 build/asm/mainbus.s.o
 .gnu.attributes
                0x0000000000000000       0x10 build/asm/mainbus.s.o
 .data          0x0000000000000000        0x0 build/asm/load.s.o
 .bss           0x0000000000000000        0x0 build/asm/load.s.o
 .reginfo       0x0000000000000000       0x18 build/asm/load.s.o
 .MIPS.abiflags
                0x0000000000000000       0x18 build/asm/load.s.o
 .pdr           0x0000000000000000        0x0 build/asm/load.s.o
 .gnu.attributes
                0x0000000000000000       0x10 build/asm/load.s.o
 .data          0x0000000000000000        0x0 build/asm/resample.s.o
 .bss           0x0000000000000000        0x0 build/asm/resample.s.o
 .reginfo       0x0000000000000000       0x18 build/asm/resample.s.o
 .MIPS.abiflags
                0x0000000000000000       0x18 build/asm/resample.s.o
 .pdr           0x0000000000000000        0x0 build/asm/resample.s.o
 .gnu.attributes
                0x0000000000000000       0x10 build/asm/resample.s.o
 .data          0x0000000000000000        0x0 build/asm/env.s.o
 .bss           0x0000000000000000        0x0 build/asm/env.s.o
 .reginfo       0x0000000000000000       0x18 build/asm/env.s.o
 .MIPS.abiflags
                0x0000000000000000       0x18 build/asm/env.s.o
 .pdr           0x0000000000000000        0x0 build/asm/env.s.o
 .gnu.attributes
                0x0000000000000000       0x10 build/asm/env.s.o
 .data          0x0000000000000000        0x0 build/asm/auxbus.s.o
 .bss           0x0000000000000000        0x0 build/asm/auxbus.s.o
 .reginfo       0x0000000000000000       0x18 build/asm/auxbus.s.o
 .MIPS.abiflags
                0x0000000000000000       0x18 build/asm/auxbus.s.o
 .pdr           0x0000000000000000        0x0 build/asm/auxbus.s.o
 .gnu.attributes
                0x0000000000000000       0x10 build/asm/auxbus.s.o
 .data          0x0000000000000000        0x0 build/asm/save.s.o
 .bss           0x0000000000000000        0x0 build/asm/save.s.o
 .reginfo       0x0000000000000000       0x18 build/asm/save.s.o
 .MIPS.abiflags
                0x0000000000000000       0x18 build/asm/save.s.o
 .pdr           0x0000000000000000        0x0 build/asm/save.s.o
 .gnu.attributes
                0x0000000000000000       0x10 build/asm/save.s.o
 .data          0x0000000000000000        0x0 build/asm/ai.s.o
 .bss           0x0000000000000000        0x0 build/asm/ai.s.o
 .reginfo       0x0000000000000000       0x18 build/asm/ai.s.o
 .MIPS.abiflags
                0x0000000000000000       0x18 build/asm/ai.s.o
 .pdr           0x0000000000000000        0x0 build/asm/ai.s.o
 .gnu.attributes
                0x0000000000000000       0x10 build/asm/ai.s.o
 .data          0x0000000000000000        0x0 build/asm/seqplayer.s.o
 .bss           0x0000000000000000        0x0 build/asm/seqplayer.s.o
 .reginfo       0x0000000000000000       0x18 build/asm/seqplayer.s.o
 .MIPS.abiflags
                0x0000000000000000       0x18 build/asm/seqplayer.s.o
 .pdr           0x0000000000000000        0x0 build/asm/seqplayer.s.o
 .gnu.attributes
                0x0000000000000000       0x10 build/asm/seqplayer.s.o
 .data          0x0000000000000000        0x0 build/asm/synaddplayer.s.o
 .bss           0x0000000000000000        0x0 build/asm/synaddplayer.s.o
 .reginfo       0x0000000000000000       0x18 build/asm/synaddplayer.s.o
 .MIPS.abiflags
                0x0000000000000000       0x18 build/asm/synaddplayer.s.o
 .pdr           0x0000000000000000        0x0 build/asm/synaddplayer.s.o
 .gnu.attributes
                0x0000000000000000       0x10 build/asm/synaddplayer.s.o
 .data          0x0000000000000000        0x0 build/asm/synstopvoice.s.o
 .bss           0x0000000000000000        0x0 build/asm/synstopvoice.s.o
 .reginfo       0x0000000000000000       0x18 build/asm/synstopvoice.s.o
 .MIPS.abiflags
                0x0000000000000000       0x18 build/asm/synstopvoice.s.o
 .pdr           0x0000000000000000        0x0 build/asm/synstopvoice.s.o
 .gnu.attributes
                0x0000000000000000       0x10 build/asm/synstopvoice.s.o
 .data          0x0000000000000000        0x0 build/asm/synfreevoice.s.o
 .bss           0x0000000000000000        0x0 build/asm/synfreevoice.s.o
 .reginfo       0x0000000000000000       0x18 build/asm/synfreevoice.s.o
 .MIPS.abiflags
                0x0000000000000000       0x18 build/asm/synfreevoice.s.o
 .pdr           0x0000000000000000        0x0 build/asm/synfreevoice.s.o
 .gnu.attributes
                0x0000000000000000       0x10 build/asm/synfreevoice.s.o
 .data          0x0000000000000000        0x0 build/asm/synsetvol.s.o
 .bss           0x0000000000000000        0x0 build/asm/synsetvol.s.o
 .reginfo       0x0000000000000000       0x18 build/asm/synsetvol.s.o
 .MIPS.abiflags
                0x0000000000000000       0x18 build/asm/synsetvol.s.o
 .pdr           0x0000000000000000        0x0 build/asm/synsetvol.s.o
 .gnu.attributes
                0x0000000000000000       0x10 build/asm/synsetvol.s.o
 .data          0x0000000000000000        0x0 build/asm/synsetpitch.s.o
 .bss           0x0000000000000000        0x0 build/asm/synsetpitch.s.o
 .reginfo       0x0000000000000000       0x18 build/asm/synsetpitch.s.o
 .MIPS.abiflags
                0x0000000000000000       0x18 build/asm/synsetpitch.s.o
 .pdr           0x0000000000000000        0x0 build/asm/synsetpitch.s.o
 .gnu.attributes
                0x0000000000000000       0x10 build/asm/synsetpitch.s.o
 .data          0x0000000000000000        0x0 build/asm/synallocvoice.s.o
 .bss           0x0000000000000000        0x0 build/asm/synallocvoice.s.o
 .reginfo       0x0000000000000000       0x18 build/asm/synallocvoice.s.o
 .MIPS.abiflags
                0x0000000000000000       0x18 build/asm/synallocvoice.s.o
 .pdr           0x0000000000000000        0x0 build/asm/synallocvoice.s.o
 .gnu.attributes
                0x0000000000000000       0x10 build/asm/synallocvoice.s.o
 .data          0x0000000000000000        0x0 build/asm/cents2ratio.s.o
 .bss           0x0000000000000000        0x0 build/asm/cents2ratio.s.o
 .reginfo       0x0000000000000000       0x18 build/asm/cents2ratio.s.o
 .MIPS.abiflags
                0x0000000000000000       0x18 build/asm/cents2ratio.s.o
 .pdr           0x0000000000000000        0x0 build/asm/cents2ratio.s.o
 .gnu.attributes
                0x0000000000000000       0x10 build/asm/cents2ratio.s.o
 .data          0x0000000000000000        0x0 build/asm/synstartvoiceparam.s.o
 .bss           0x0000000000000000        0x0 build/asm/synstartvoiceparam.s.o
 .reginfo       0x0000000000000000       0x18 build/asm/synstartvoiceparam.s.o
 .MIPS.abiflags
                0x0000000000000000       0x18 build/asm/synstartvoiceparam.s.o
 .pdr           0x0000000000000000        0x0 build/asm/synstartvoiceparam.s.o
 .gnu.attributes
                0x0000000000000000       0x10 build/asm/synstartvoiceparam.s.o
 .data          0x0000000000000000        0x0 build/asm/synsetpan.s.o
 .bss           0x0000000000000000        0x0 build/asm/synsetpan.s.o
 .reginfo       0x0000000000000000       0x18 build/asm/synsetpan.s.o
 .MIPS.abiflags
                0x0000000000000000       0x18 build/asm/synsetpan.s.o
 .pdr           0x0000000000000000        0x0 build/asm/synsetpan.s.o
 .gnu.attributes
                0x0000000000000000       0x10 build/asm/synsetpan.s.o
 .data          0x0000000000000000        0x0 build/asm/synsetfxmix.s.o
 .bss           0x0000000000000000        0x0 build/asm/synsetfxmix.s.o
 .reginfo       0x0000000000000000       0x18 build/asm/synsetfxmix.s.o
 .MIPS.abiflags
                0x0000000000000000       0x18 build/asm/synsetfxmix.s.o
 .pdr           0x0000000000000000        0x0 build/asm/synsetfxmix.s.o
 .gnu.attributes
                0x0000000000000000       0x10 build/asm/synsetfxmix.s.o
 .data          0x0000000000000000        0x0 build/asm/synstartvoice.s.o
 .bss           0x0000000000000000        0x0 build/asm/synstartvoice.s.o
 .reginfo       0x0000000000000000       0x18 build/asm/synstartvoice.s.o
 .MIPS.abiflags
                0x0000000000000000       0x18 build/asm/synstartvoice.s.o
 .pdr           0x0000000000000000        0x0 build/asm/synstartvoice.s.o
 .gnu.attributes
                0x0000000000000000       0x10 build/asm/synstartvoice.s.o
 .data          0x0000000000000000        0x0 build/asm/siacs.s.o
 .bss           0x0000000000000000        0x0 build/asm/siacs.s.o
 .reginfo       0x0000000000000000       0x18 build/asm/siacs.s.o
 .MIPS.abiflags
                0x0000000000000000       0x18 build/asm/siacs.s.o
 .pdr           0x0000000000000000        0x0 build/asm/siacs.s.o
 .gnu.attributes
                0x0000000000000000       0x10 build/asm/siacs.s.o
 .data          0x0000000000000000        0x0 build/asm/pfsgetstatus.s.o
 .bss           0x0000000000000000        0x0 build/asm/pfsgetstatus.s.o
 .reginfo       0x0000000000000000       0x18 build/asm/pfsgetstatus.s.o
 .MIPS.abiflags
                0x0000000000000000       0x18 build/asm/pfsgetstatus.s.o
 .pdr           0x0000000000000000        0x0 build/asm/pfsgetstatus.s.o
 .gnu.attributes
                0x0000000000000000       0x10 build/asm/pfsgetstatus.s.o
 .data          0x0000000000000000        0x0 build/asm/contpfs.s.o
 .bss           0x0000000000000000        0x0 build/asm/contpfs.s.o
 .reginfo       0x0000000000000000       0x18 build/asm/contpfs.s.o
 .MIPS.abiflags
                0x0000000000000000       0x18 build/asm/contpfs.s.o
 .pdr           0x0000000000000000        0x0 build/asm/contpfs.s.o
 .gnu.attributes
                0x0000000000000000       0x10 build/asm/contpfs.s.o
 .data          0x0000000000000000        0x0 build/asm/contramread.s.o
 .bss           0x0000000000000000        0x0 build/asm/contramread.s.o
 .reginfo       0x0000000000000000       0x18 build/asm/contramread.s.o
 .MIPS.abiflags
                0x0000000000000000       0x18 build/asm/contramread.s.o
 .pdr           0x0000000000000000        0x0 build/asm/contramread.s.o
 .gnu.attributes
                0x0000000000000000       0x10 build/asm/contramread.s.o
 .data          0x0000000000000000        0x0 build/asm/pfschecker.s.o
 .bss           0x0000000000000000        0x0 build/asm/pfschecker.s.o
 .reginfo       0x0000000000000000       0x18 build/asm/pfschecker.s.o
 .MIPS.abiflags
                0x0000000000000000       0x18 build/asm/pfschecker.s.o
 .pdr           0x0000000000000000        0x0 build/asm/pfschecker.s.o
 .gnu.attributes
                0x0000000000000000       0x10 build/asm/pfschecker.s.o
 .data          0x0000000000000000        0x0 build/asm/pfsisplug.s.o
 .bss           0x0000000000000000        0x0 build/asm/pfsisplug.s.o
 .reginfo       0x0000000000000000       0x18 build/asm/pfsisplug.s.o
 .MIPS.abiflags
                0x0000000000000000       0x18 build/asm/pfsisplug.s.o
 .pdr           0x0000000000000000        0x0 build/asm/pfsisplug.s.o
 .gnu.attributes
                0x0000000000000000       0x10 build/asm/pfsisplug.s.o
 .data          0x0000000000000000        0x0 build/asm/sirawdma.s.o
 .bss           0x0000000000000000        0x0 build/asm/sirawdma.s.o
 .reginfo       0x0000000000000000       0x18 build/asm/sirawdma.s.o
 .MIPS.abiflags
                0x0000000000000000       0x18 build/asm/sirawdma.s.o
 .pdr           0x0000000000000000        0x0 build/asm/sirawdma.s.o
 .gnu.attributes
                0x0000000000000000       0x10 build/asm/sirawdma.s.o
 .data          0x0000000000000000        0x0 build/asm/crc.s.o
 .bss           0x0000000000000000        0x0 build/asm/crc.s.o
 .reginfo       0x0000000000000000       0x18 build/asm/crc.s.o
 .MIPS.abiflags
                0x0000000000000000       0x18 build/asm/crc.s.o
 .pdr           0x0000000000000000        0x0 build/asm/crc.s.o
 .gnu.attributes
                0x0000000000000000       0x10 build/asm/crc.s.o
 .data          0x0000000000000000        0x0 build/asm/contramwrite.s.o
 .bss           0x0000000000000000        0x0 build/asm/contramwrite.s.o
 .reginfo       0x0000000000000000       0x18 build/asm/contramwrite.s.o
 .MIPS.abiflags
                0x0000000000000000       0x18 build/asm/contramwrite.s.o
 .pdr           0x0000000000000000        0x0 build/asm/contramwrite.s.o
 .gnu.attributes
                0x0000000000000000       0x10 build/asm/contramwrite.s.o
 .data          0x0000000000000000        0x0 build/asm/settimer.s.o
 .bss           0x0000000000000000        0x0 build/asm/settimer.s.o
 .reginfo       0x0000000000000000       0x18 build/asm/settimer.s.o
 .MIPS.abiflags
                0x0000000000000000       0x18 build/asm/settimer.s.o
 .pdr           0x0000000000000000        0x0 build/asm/settimer.s.o
 .gnu.attributes
                0x0000000000000000       0x10 build/asm/settimer.s.o
 .data          0x0000000000000000        0x0 build/asm/pfssearchfile.s.o
 .bss           0x0000000000000000        0x0 build/asm/pfssearchfile.s.o
 .reginfo       0x0000000000000000       0x18 build/asm/pfssearchfile.s.o
 .MIPS.abiflags
                0x0000000000000000       0x18 build/asm/pfssearchfile.s.o
 .pdr           0x0000000000000000        0x0 build/asm/pfssearchfile.s.o
 .gnu.attributes
                0x0000000000000000       0x10 build/asm/pfssearchfile.s.o
 .data          0x0000000000000000        0x0 build/asm/si.s.o
 .bss           0x0000000000000000        0x0 build/asm/si.s.o
 .reginfo       0x0000000000000000       0x18 build/asm/si.s.o
 .MIPS.abiflags
                0x0000000000000000       0x18 build/asm/si.s.o
 .pdr           0x0000000000000000        0x0 build/asm/si.s.o
 .gnu.attributes
                0x0000000000000000       0x10 build/asm/si.s.o
 .data          0x0000000000000000        0x0 build/asm/leointerrupt.s.o
 .bss           0x0000000000000000        0x0 build/asm/leointerrupt.s.o
 .reginfo       0x0000000000000000       0x18 build/asm/leointerrupt.s.o
 .MIPS.abiflags
                0x0000000000000000       0x18 build/asm/leointerrupt.s.o
 .pdr           0x0000000000000000        0x0 build/asm/leointerrupt.s.o
 .gnu.attributes
                0x0000000000000000       0x10 build/asm/leointerrupt.s.o
 .data          0x0000000000000000        0x0 build/asm/destroythread.s.o
 .bss           0x0000000000000000        0x0 build/asm/destroythread.s.o
 .reginfo       0x0000000000000000       0x18 build/asm/destroythread.s.o
 .MIPS.abiflags
                0x0000000000000000       0x18 build/asm/destroythread.s.o
 .pdr           0x0000000000000000        0x0 build/asm/destroythread.s.o
 .gnu.attributes
                0x0000000000000000       0x10 build/asm/destroythread.s.o
 .data          0x0000000000000000        0x0 build/asm/resetglobalintmask.s.o
 .bss           0x0000000000000000        0x0 build/asm/resetglobalintmask.s.o
 .reginfo       0x0000000000000000       0x18 build/asm/resetglobalintmask.s.o
 .MIPS.abiflags
                0x0000000000000000       0x18 build/asm/resetglobalintmask.s.o
 .pdr           0x0000000000000000        0x0 build/asm/resetglobalintmask.s.o
 .gnu.attributes
                0x0000000000000000       0x10 build/asm/resetglobalintmask.s.o
 .data          0x0000000000000000        0x0 build/asm/epirawwrite.s.o
 .bss           0x0000000000000000        0x0 build/asm/epirawwrite.s.o
 .reginfo       0x0000000000000000       0x18 build/asm/epirawwrite.s.o
 .MIPS.abiflags
                0x0000000000000000       0x18 build/asm/epirawwrite.s.o
 .pdr           0x0000000000000000        0x0 build/asm/epirawwrite.s.o
 .gnu.attributes
                0x0000000000000000       0x10 build/asm/epirawwrite.s.o
 .data          0x0000000000000000        0x0 build/asm/epirawread.s.o
 .bss           0x0000000000000000        0x0 build/asm/epirawread.s.o
 .reginfo       0x0000000000000000       0x18 build/asm/epirawread.s.o
 .MIPS.abiflags
                0x0000000000000000       0x18 build/asm/epirawread.s.o
 .pdr           0x0000000000000000        0x0 build/asm/epirawread.s.o
 .gnu.attributes
                0x0000000000000000       0x10 build/asm/epirawread.s.o
 .data          0x0000000000000000        0x0 build/asm/setglobalintmask.s.o
 .bss           0x0000000000000000        0x0 build/asm/setglobalintmask.s.o
 .reginfo       0x0000000000000000       0x18 build/asm/setglobalintmask.s.o
 .MIPS.abiflags
                0x0000000000000000       0x18 build/asm/setglobalintmask.s.o
 .pdr           0x0000000000000000        0x0 build/asm/setglobalintmask.s.o
 .gnu.attributes
                0x0000000000000000       0x10 build/asm/setglobalintmask.s.o
 .data          0x0000000000000000        0x0 build/asm/yieldthread.s.o
 .bss           0x0000000000000000        0x0 build/asm/yieldthread.s.o
 .reginfo       0x0000000000000000       0x18 build/asm/yieldthread.s.o
 .MIPS.abiflags
                0x0000000000000000       0x18 build/asm/yieldthread.s.o
 .pdr           0x0000000000000000        0x0 build/asm/yieldthread.s.o
 .gnu.attributes
                0x0000000000000000       0x10 build/asm/yieldthread.s.o
 .data          0x0000000000000000        0x0 build/asm/setcompare.s.o
 .bss           0x0000000000000000        0x0 build/asm/setcompare.s.o
 .reginfo       0x0000000000000000       0x18 build/asm/setcompare.s.o
 .MIPS.abiflags
                0x0000000000000000       0x18 build/asm/setcompare.s.o
 .pdr           0x0000000000000000        0x0 build/asm/setcompare.s.o
 .gnu.attributes
                0x0000000000000000       0x10 build/asm/setcompare.s.o
 .data          0x0000000000000000        0x0 build/asm/xlitob.s.o
 .bss           0x0000000000000000        0x0 build/asm/xlitob.s.o
 .reginfo       0x0000000000000000       0x18 build/asm/xlitob.s.o
 .MIPS.abiflags
                0x0000000000000000       0x18 build/asm/xlitob.s.o
 .pdr           0x0000000000000000        0x0 build/asm/xlitob.s.o
 .gnu.attributes
                0x0000000000000000       0x10 build/asm/xlitob.s.o
 .data          0x0000000000000000        0x0 build/asm/xldtob.s.o
 .bss           0x0000000000000000        0x0 build/asm/xldtob.s.o
 .reginfo       0x0000000000000000       0x18 build/asm/xldtob.s.o
 .MIPS.abiflags
                0x0000000000000000       0x18 build/asm/xldtob.s.o
 .pdr           0x0000000000000000        0x0 build/asm/xldtob.s.o
 .gnu.attributes
                0x0000000000000000       0x10 build/asm/xldtob.s.o
 .data          0x0000000000000000        0x0 build/asm/copy.s.o
 .bss           0x0000000000000000        0x0 build/asm/copy.s.o
 .reginfo       0x0000000000000000       0x18 build/asm/copy.s.o
 .MIPS.abiflags
                0x0000000000000000       0x18 build/asm/copy.s.o
 .pdr           0x0000000000000000        0x0 build/asm/copy.s.o
 .gnu.attributes
                0x0000000000000000       0x10 build/asm/copy.s.o
 .data          0x0000000000000000        0x0 build/asm/filter.s.o
 .bss           0x0000000000000000        0x0 build/asm/filter.s.o
 .reginfo       0x0000000000000000       0x18 build/asm/filter.s.o
 .MIPS.abiflags
                0x0000000000000000       0x18 build/asm/filter.s.o
 .pdr           0x0000000000000000        0x0 build/asm/filter.s.o
 .gnu.attributes
                0x0000000000000000       0x10 build/asm/filter.s.o
 .data          0x0000000000000000        0x0 build/asm/reverb.s.o
 .bss           0x0000000000000000        0x0 build/asm/reverb.s.o
 .reginfo       0x0000000000000000       0x18 build/asm/reverb.s.o
 .MIPS.abiflags
                0x0000000000000000       0x18 build/asm/reverb.s.o
 .pdr           0x0000000000000000        0x0 build/asm/reverb.s.o
 .gnu.attributes
                0x0000000000000000       0x10 build/asm/reverb.s.o
 .data          0x0000000000000000        0x0 build/asm/seq.s.o
 .bss           0x0000000000000000        0x0 build/asm/seq.s.o
 .reginfo       0x0000000000000000       0x18 build/asm/seq.s.o
 .MIPS.abiflags
                0x0000000000000000       0x18 build/asm/seq.s.o
 .pdr           0x0000000000000000        0x0 build/asm/seq.s.o
 .gnu.attributes
                0x0000000000000000       0x10 build/asm/seq.s.o
 .data          0x0000000000000000        0x0 build/asm/synsetpriority.s.o
 .bss           0x0000000000000000        0x0 build/asm/synsetpriority.s.o
 .reginfo       0x0000000000000000       0x18 build/asm/synsetpriority.s.o
 .MIPS.abiflags
                0x0000000000000000       0x18 build/asm/synsetpriority.s.o
 .pdr           0x0000000000000000        0x0 build/asm/synsetpriority.s.o
 .gnu.attributes
                0x0000000000000000       0x10 build/asm/synsetpriority.s.o

Memory Configuration

Name             Origin             Length             Attributes
*default*        0x0000000000000000 0xffffffffffffffff

Linker script and memory map

LOAD build/asm/header.s.o
LOAD build/assets/boot.bin.o
LOAD build/asm/1000.s.o
LOAD build/src/init.c.o
LOAD build/src/1130.c.o
LOAD build/asm/1850.s.o
LOAD build/asm/33D0.s.o
LOAD build/asm/8650.s.o
LOAD build/asm/97B0.s.o
LOAD build/src/C120.c.o
LOAD build/asm/C910.s.o
LOAD build/src/FA60.c.o
LOAD build/src/shadow.c.o
LOAD build/asm/12740.s.o
LOAD build/asm/15440.s.o
LOAD build/asm/191F0.s.o
LOAD build/asm/1BCD0.s.o
LOAD build/asm/1D160.s.o
LOAD build/asm/1E4B0.s.o
LOAD build/src/1EDF0.c.o
LOAD build/src/inventory.c.o
LOAD build/asm/screen_dim.s.o
LOAD build/asm/23740.s.o
LOAD build/asm/srand.s.o
LOAD build/asm/24E60.s.o
LOAD build/src/25290.c.o
LOAD build/asm/271F0.s.o
LOAD build/src/27640.c.o
LOAD build/asm/2C110.s.o
LOAD build/asm/2F1E0.s.o
LOAD build/asm/31A10.s.o
LOAD build/asm/31F00.s.o
LOAD build/asm/32840.s.o
LOAD build/asm/328F0.s.o
LOAD build/asm/initialize.s.o
LOAD build/asm/createthread.s.o
LOAD build/asm/startthread.s.o
LOAD build/asm/pimgr.s.o
LOAD build/asm/createmesgqueue.s.o
LOAD build/asm/visetevent.s.o
LOAD build/asm/seteventmesg.s.o
LOAD build/asm/recvmesg.s.o
LOAD build/asm/setintmask.s.o
LOAD build/asm/sendmesg.s.o
LOAD build/asm/writebackdcacheall.s.o
LOAD build/asm/sptaskyield.s.o
LOAD build/asm/sptaskyielded.s.o
LOAD build/asm/sptask.s.o
LOAD build/asm/virepeatline.s.o
LOAD build/asm/viswapbuf.s.o
LOAD build/asm/vigetcurrframebuf.s.o
LOAD build/asm/vimgr.s.o
LOAD build/asm/visetmode.s.o
LOAD build/asm/visetspecial.s.o
LOAD build/asm/virtualtophysical.s.o
LOAD build/asm/writebackdcache.s.o
LOAD build/asm/gettime.s.o
LOAD build/asm/sqrtf.s.o
LOAD build/asm/position.s.o
LOAD build/asm/sins.s.o
LOAD build/asm/mtxutil.s.o
LOAD build/asm/mtxcatf.s.o
LOAD build/asm/sinf.s.o
LOAD build/asm/ortho.s.o
LOAD build/asm/perspective.s.o
LOAD build/asm/lookatref.s.o
LOAD build/asm/translate.s.o
LOAD build/asm/cosf.s.o
LOAD build/asm/sprintf.s.o
LOAD build/asm/invalicache.s.o
LOAD build/asm/invaldcache.s.o
LOAD build/asm/pidma.s.o
LOAD build/asm/heapinit.s.o
LOAD build/asm/heapalloc.s.o
LOAD build/asm/aisetfreq.s.o
LOAD build/asm/seqpsetvol.s.o
LOAD build/asm/synthesizer.s.o
LOAD build/asm/aigetlen.s.o
LOAD build/asm/aisetnextbuf.s.o
LOAD build/asm/n_alseqpgetvol.s.o
LOAD build/asm/csplayer.s.o
LOAD build/asm/bnkf.s.o
LOAD build/asm/seqpsetbank.s.o
LOAD build/asm/cseq.s.o
LOAD build/asm/cspsetseq.s.o
LOAD build/asm/seqpplay.s.o
LOAD build/asm/seqpstop.s.o
LOAD build/asm/seqpgetstate.s.o
LOAD build/asm/sndplayer.s.o
LOAD build/asm/sndpallocate.s.o
LOAD build/asm/sndpsetsound.s.o
LOAD build/asm/sndpgetstate.s.o
LOAD build/asm/sndplay.s.o
LOAD build/asm/sndpstop.s.o
LOAD build/asm/sndpsetpitch.s.o
LOAD build/asm/sndpsetvol.s.o
LOAD build/asm/sndpsetpan.s.o
LOAD build/asm/ll.s.o
LOAD build/asm/pfsinitpak.s.o
LOAD build/asm/motor.s.o
LOAD build/asm/deletedfuncs.s.o
LOAD build/asm/controller.s.o
LOAD build/asm/contsetch.s.o
LOAD build/asm/contreaddata.s.o
LOAD build/asm/pfsfilestate.s.o
LOAD build/asm/pfsfreeblocks.s.o
LOAD build/asm/pfsallocatefile.s.o
LOAD build/asm/pfsdeletefile.s.o
LOAD build/asm/pfsreadwritefile.s.o
LOAD build/asm/__osGetId.s.o
LOAD build/asm/pfsnumfiles.s.o
LOAD build/asm/contquery.s.o
LOAD build/asm/setsr.s.o
LOAD build/asm/getsr.s.o
LOAD build/asm/setfpccsr.s.o
LOAD build/asm/sprawread.s.o
LOAD build/asm/sprawwrite.s.o
LOAD build/asm/exceptasm.s.o
LOAD build/asm/maptlbrdb.s.o
LOAD build/asm/pirawread.s.o
LOAD build/asm/bzero.s.o
LOAD build/asm/interrupt.s.o
LOAD build/asm/thread.s.o
LOAD build/asm/cartrominit.s.o
LOAD build/asm/leodiskinit.s.o
LOAD build/asm/siacsDuplicate.s.o
LOAD build/asm/getthreadpri.s.o
LOAD build/asm/setthreadpri.s.o
LOAD build/asm/pirawdma.s.o
LOAD build/asm/epiramdma.s.o
LOAD build/asm/devmgr.s.o
LOAD build/asm/vi.s.o
LOAD build/asm/spsetstat.s.o
LOAD build/asm/spgetstat.s.o
LOAD build/asm/bcopy.s.o
LOAD build/asm/spsetpc.s.o
LOAD build/asm/sprawdma.s.o
LOAD build/asm/sp.s.o
LOAD build/asm/timerintr.s.o
LOAD build/asm/vigetcurrcontext.s.o
LOAD build/asm/viswapcontext.s.o
LOAD build/asm/getcount.s.o
LOAD build/asm/probetlb.s.o
LOAD build/asm/xprintf.s.o
LOAD build/asm/string.s.o
LOAD build/asm/jammesg.s.o
LOAD build/asm/syndelete.s.o
LOAD build/asm/event.s.o
LOAD build/asm/drvrNew.s.o
LOAD build/asm/synallocfx.s.o
LOAD build/asm/mainbus.s.o
LOAD build/asm/load.s.o
LOAD build/asm/resample.s.o
LOAD build/asm/env.s.o
LOAD build/asm/auxbus.s.o
LOAD build/asm/save.s.o
LOAD build/asm/ai.s.o
LOAD build/asm/seqplayer.s.o
LOAD build/asm/synaddplayer.s.o
LOAD build/asm/synstopvoice.s.o
LOAD build/asm/synfreevoice.s.o
LOAD build/asm/synsetvol.s.o
LOAD build/asm/synsetpitch.s.o
LOAD build/asm/synallocvoice.s.o
LOAD build/asm/cents2ratio.s.o
LOAD build/asm/synstartvoiceparam.s.o
LOAD build/asm/synsetpan.s.o
LOAD build/asm/synsetfxmix.s.o
LOAD build/asm/synstartvoice.s.o
LOAD build/asm/siacs.s.o
LOAD build/asm/pfsgetstatus.s.o
LOAD build/asm/contpfs.s.o
LOAD build/asm/contramread.s.o
LOAD build/asm/pfschecker.s.o
LOAD build/asm/pfsisplug.s.o
LOAD build/asm/sirawdma.s.o
LOAD build/asm/crc.s.o
LOAD build/asm/contramwrite.s.o
LOAD build/asm/settimer.s.o
LOAD build/asm/pfssearchfile.s.o
LOAD build/asm/si.s.o
LOAD build/asm/leointerrupt.s.o
LOAD build/asm/destroythread.s.o
LOAD build/asm/resetglobalintmask.s.o
LOAD build/asm/epirawwrite.s.o
LOAD build/asm/epirawread.s.o
LOAD build/asm/setglobalintmask.s.o
LOAD build/asm/yieldthread.s.o
LOAD build/asm/setcompare.s.o
LOAD build/asm/xlitob.s.o
LOAD build/asm/xldtob.s.o
LOAD build/asm/copy.s.o
LOAD build/asm/filter.s.o
LOAD build/asm/reverb.s.o
LOAD build/asm/seq.s.o
LOAD build/asm/synsetpriority.s.o
LOAD build/assets/ucode_boot.bin.o
LOAD build/assets/ucode.bin.o
LOAD build/assets/4BFF0.bin.o
LOAD build/assets/ucode_data.bin.o
LOAD build/assets/737D0.bin.o
LOAD build/assets/73A90.bin.o
LOAD build/assets/D4B3C0.bin.o
LOAD build/assets/Instrument_ctl.bin.o
LOAD build/assets/Instrument_tbl.bin.o
LOAD build/assets/SE_ctl.bin.o
LOAD build/assets/SE_tbl.bin.o
LOAD build/assets/trailer.bin.o
                0x0000000001000000                __romPos = 0x0
                0x0000000001000000                . = __romPos
                0x0000000000000000                header_ROM_START = __romPos
                0x0000000000000000                header_VRAM = ADDR (.header)

.header         0x0000000000000000       0x40
                0x0000000000000000                header_TEXT_START = .
                0x0000000000000000                header_TEXT_END = .
                0x0000000000000000                header_DATA_START = .
                0x0000000000000000                header_s = .
 build/asm/header.s.o(.data)
 .data          0x0000000000000000       0x40 build/asm/header.s.o
                0x0000000000000040                header_DATA_END = .
                0x0000000000000040                header_BSS_START = .
                0x0000000000000040                header_BSS_END = .
                0x0000000000000040                header_ROM_END = 0x40
                0x0000000001000000                __romPos = 0x40
                0x0000000001000000                __romPos = 0x40
                0x0000000001000000                . = __romPos
                0x0000000000000040                boot_ROM_START = __romPos
                0x0000000000000040                boot_VRAM = ADDR (.boot)

.boot           0x0000000000000040      0xfc0
                0x0000000000000040                boot_TEXT_START = .
                0x0000000000000040                boot_TEXT_END = .
                0x0000000000000040                boot_DATA_START = .
                0x0000000000000040                boot_bin = .
 build/assets/boot.bin.o(.data)
 .data          0x0000000000000040      0xfc0 build/assets/boot.bin.o
                0x0000000000000040                _binary_assets_boot_bin_start
                0x0000000000001000                _binary_assets_boot_bin_end
                0x0000000000001000                boot_DATA_END = .
                0x0000000000001000                boot_BSS_START = .
                0x0000000000001000                boot_BSS_END = .
                0x0000000000001000                boot_ROM_END = 0x1000
                0x0000000001000000                __romPos = 0x1000
                0x0000000001000000                __romPos = 0x1000
                0x0000000001000000                . = __romPos
                0x0000000000001000                main_ROM_START = __romPos
                0x0000000080000400                main_VRAM = ADDR (.main)

.main           0x0000000080000400    0x49af0 load address 0x0000000000001000
                0x0000000080000400                main_TEXT_START = .
 build/asm/1000.s.o(.text)
 .text          0x0000000080000400       0x50 build/asm/1000.s.o
                0x0000000080000400                romMain
 build/src/init.c.o(.text)
 .text          0x0000000080000450       0xe0 build/src/init.c.o
                0x0000000080000450                func_80000450
                0x00000000800004b0                func_800004B0
 build/src/1130.c.o(.text)
 .text          0x0000000080000530      0x720 build/src/1130.c.o
                0x0000000080000530                func_80000530
                0x000000008000062c                func_8000062C
                0x00000000800006f8                Add_Four
                0x0000000080000704                Add_0x3C
                0x0000000080000710                func_80000710
                0x00000000800007d4                osScAddClient
                0x0000000080000824                func_80000824
                0x00000000800008b0                func_800008B0
                0x0000000080000900                func_80000900
                0x0000000080000a80                func_80000A80
                0x0000000080000bb4                func_80000BB4
 build/asm/1850.s.o(.text)
 .text          0x0000000080000c50     0x1b80 build/asm/1850.s.o
                0x0000000080000c50                gameMain
                0x0000000080000eec                setupNewGame
                0x0000000080000fe8                loadSpiritsSpells_and_Hud
                0x000000008000111c                func_8000111C
                0x00000000800011dc                graphicsMain
                0x0000000080001800                Mode_NormalPlay
                0x00000000800020b4                Mode_Pause_and_SaveMenu
                0x000000008000227c                Mode_TitleScreen
                0x0000000080002428                Mode_OPCredits_and_Story
                0x00000000800025e8                Mode_EndCredits
 build/asm/33D0.s.o(.text)
 .text          0x00000000800027d0     0x5280 build/asm/33D0.s.o
                0x00000000800027d0                SetDataForNewGame
                0x0000000080002918                func_80002918
                0x0000000080002ea0                CheckIfRoomIsValidLoadPoint
                0x0000000080002f60                unkContainsPtrImportant
                0x0000000080003870                func_80003870
                0x0000000080003a1c                UNK_Battle_Init
                0x0000000080003b60                StandStill_OR_WalkRun
                0x0000000080003f5c                UNK_DisableBrianMovement
                0x0000000080003f98                UNK_StopRunning_Skid
                0x0000000080004040                func_80004040
                0x00000000800041b4                brianDeath
                0x0000000080004260                TalkToNPC
                0x00000000800043c4                WalkThroughTransition
                0x0000000080004448                StaffAttack
                0x00000000800045f0                CastSpell
                0x0000000080004708                OpenDoor
                0x00000000800048d0                OpenSmallDoor
                0x000000008000496c                OpenChest
                0x0000000080004ab8                UseItem
                0x0000000080004bd0                func_80004BD0
                0x0000000080004d30                func_80004D30
                0x0000000080004e58                func_80004E58
                0x000000008000534c                func_8000534C
                0x00000000800056d0                func_800056D0
                0x0000000080005740                func_80005740
                0x0000000080005748                battleFenceCollissionSomething
                0x0000000080005a10                func_80005A10
                0x0000000080005c6c                func_80005C6C
                0x000000008000600c                func_8000600C
                0x00000000800060d4                doorSomething
                0x0000000080006340                func_80006340
                0x0000000080006604                func_80006604
                0x000000008000669c                playItemUseAnim
                0x0000000080006720                loadBrianAnim
                0x0000000080006774                func_80006774
                0x00000000800069fc                func_800069FC
                0x0000000080006a74                func_80006A74
                0x0000000080006b1c                func_80006B1C
                0x0000000080006bec                func_80006BEC
                0x0000000080006f6c                func_80006F6C
                0x0000000080007030                func_80007030
                0x00000000800070c0                func_800070C0
                0x00000000800072a8                func_800072A8
                0x00000000800073cc                calculateBattleAgilXP
                0x00000000800074a0                func_800074A0
 build/asm/8650.s.o(.text)
 .text          0x0000000080007a50     0x1160 build/asm/8650.s.o
                0x0000000080007a50                LoadNPCs_and_CutsceneData
                0x0000000080007b64                NPC_MainRoutine
                0x0000000080007f18                func_80007F18
                0x00000000800080e8                VOID_NPC_RELATED
                0x0000000080008290                func_80008290
                0x000000008000835c                func_8000835C
                0x00000000800086e4                NPC_Talk_GiveItem
                0x0000000080008948                func_80008948
                0x0000000080008a00                printNPCText
                0x0000000080008ad8                func_80008AD8
 build/asm/97B0.s.o(.text)
 .text          0x0000000080008bb0     0x2970 build/asm/97B0.s.o
                0x0000000080008bb0                func_80008BB0
                0x0000000080008c20                unk_loadMonsters
                0x0000000080008cf4                func_80008CF4
                0x0000000080008ef4                func_80008EF4
                0x0000000080008f6c                VOID_EscapeBattle_CONFIRM
                0x0000000080008fe0                func_80008FE0
                0x0000000080009260                func_80009260
                0x000000008000932c                func_8000932C
                0x0000000080009378                enemyIdle
                0x0000000080009588                enemyAdvance
                0x0000000080009818                func_80009818
                0x0000000080009934                func_80009934
                0x00000000800099dc                func_800099DC
                0x0000000080009d78                enemyAttack
                0x000000008000a008                func_8000A008
                0x000000008000a284                func_8000A284
                0x000000008000a3f4                func_8000A3F4
                0x000000008000a508                func_8000A508
                0x000000008000a7d8                func_8000A7D8
                0x000000008000a854                func_8000A854
                0x000000008000abf4                func_8000ABF4
                0x000000008000ac84                func_8000AC84
                0x000000008000acc0                func_8000ACC0
                0x000000008000b110                func_8000B110
                0x000000008000b140                func_8000B140
                0x000000008000b170                func_8000B170
                0x000000008000b2b8                VOID_Reset7d0c4
                0x000000008000b2c8                func_8000B2C8
                0x000000008000b300                func_8000B300
 build/src/C120.c.o(.text)
 .text          0x000000008000b520      0x7f0 build/src/C120.c.o
                0x000000008000b520                initSomeBossAddress
                0x000000008000b530                LoadAndSpawnBoss
                0x000000008000b618                func_8000B618
                0x000000008000b740                returnBossIDIfBrianInRange
                0x000000008000b7dc                func_8000B7DC
                0x000000008000b9d8                checkForValidBossID
                0x000000008000ba0c                func_8000BA0C
                0x000000008000ba4c                playBossIntro
                0x000000008000bb68                UNK_BossBattleSomething
 build/asm/C910.s.o(.text)
 .text          0x000000008000bd10     0x3150 build/asm/C910.s.o
                0x000000008000bd10                VOID_UNK_MoreMapTransitionStuff
                0x000000008000c42c                drawBoilHoleLavaEffect
                0x000000008000c4c4                func_8000C4C4
                0x000000008000ce8c                func_8000CE8C
                0x000000008000d518                func_8000D518
                0x000000008000d9bc                func_8000D9BC
                0x000000008000db10                initDoorAnimData
                0x000000008000db38                func_8000DB38
                0x000000008000db7c                func_8000DB7C
                0x000000008000dc4c                doorAnimationsSomething
                0x000000008000ddb0                func_8000DDB0
                0x000000008000e10c                func_8000E10C
                0x000000008000e224                func_8000E224
                0x000000008000e2c0                func_8000E2C0
                0x000000008000e350                func_8000E350
                0x000000008000e3c4                func_8000E3C4
                0x000000008000e418                func_8000E418
                0x000000008000e588                func_8000E588
                0x000000008000e774                func_8000E774
                0x000000008000eb30                func_8000EB30
                0x000000008000edd8                func_8000EDD8
 build/src/FA60.c.o(.text)
 .text          0x000000008000ee60     0x29f0 build/src/FA60.c.o
                0x000000008000ee60                func_8000EE60
                0x000000008000f0bc                func_8000F0BC
                0x000000008000f238                func_8000F238
                0x000000008000f5a4                func_8000F5A4
                0x000000008000f6a4                func_8000F6A4
                0x000000008000fcbc                func_8000FCBC
                0x000000008000fde0                func_8000FDE0
                0x000000008000ff54                func_8000FF54
                0x000000008000ffe8                checkForKeyItems
                0x0000000080010080                UNK_calledWhenGettingNearDoor_RENAME
                0x00000000800100d0                initLights_and_Fog
                0x0000000080010150                timeOfDaySomething
                0x00000000800102d0                changeTimeOfDay
                0x0000000080010510                checkIfDayHasPassed_and_Inc
                0x0000000080010564                setLightingRGB
                0x0000000080010b58                func_80010B58
                0x0000000080010cac                func_80010CAC
                0x0000000080010e70                func_80010E70
                0x0000000080010ec4                func_80010EC4
                0x00000000800110d0                VOID_FUN_UNK_setsSeveralBytesToZero
                0x0000000080011100                UNK_NightHighlight_Something
                0x0000000080011150                func_80011150
                0x0000000080011170                func_80011170
                0x00000000800111a4                func_800111A4
                0x00000000800111d8                func_800111D8
                0x00000000800111f8                func_800111F8
                0x0000000080011768                func_80011768
 build/src/shadow.c.o(.text)
 .text          0x0000000080011850      0x2f0 build/src/shadow.c.o
                0x0000000080011850                ResetShadowSomething
                0x0000000080011860                drawSomeShadow
                0x00000000800118d4                func_800118D4
 build/asm/12740.s.o(.text)
 .text          0x0000000080011b40     0x2d00 build/asm/12740.s.o
                0x0000000080011b40                initChestData
                0x0000000080011b70                loadTreasureChests
                0x0000000080011d28                func_80011D28
                0x0000000080011e78                func_80011E78
                0x000000008001205c                openChest
                0x00000000800120c0                printItemObtainedMsg
                0x0000000080012170                func_80012170
                0x00000000800121b0                setChestOpenedFlag
                0x00000000800121f0                reset_86aec_86af7
                0x0000000080012220                placeSpirits
                0x0000000080012358                PickUpSpirit
                0x000000008001249c                func_8001249C
                0x00000000800125f4                uncalled_FUN_800125f4
                0x0000000080012700                func_80012700
                0x0000000080012740                func_80012740
                0x0000000080012780                func_80012780
                0x0000000080012be0                func_80012BE0
                0x0000000080013008                camModeFollow
                0x0000000080013698                camModeStaticRotate
                0x0000000080013a14                func_80013A14
                0x0000000080013a20                func_80013A20
                0x0000000080013c80                func_80013C80
                0x0000000080013d30                EmptyCameraFunc
                0x0000000080013d3c                pointCameraAtTarget_UNCONFIRMED
                0x0000000080013de0                func_80013DE0
                0x0000000080013f20                func_80013F20
                0x0000000080013f5c                cameraZoomSomething
                0x00000000800140ec                cameraPosSomething
                0x00000000800143c0                func_800143C0
                0x0000000080014434                func_80014434
                0x000000008001459c                func_8001459C
                0x0000000080014720                func_80014720
 build/asm/15440.s.o(.text)
 .text          0x0000000080014840     0x3db0 build/asm/15440.s.o
                0x0000000080014840                func_80014840
                0x0000000080014890                func_80014890
                0x00000000800149d0                func_800149D0
                0x0000000080014a98                func_80014A98
                0x0000000080014e80                func_80014E80
                0x0000000080014ed4                func_80014ED4
                0x0000000080014f48                func_80014F48
                0x0000000080014fdc                func_80014FDC
                0x00000000800150c8                func_800150C8
                0x00000000800151d4                func_800151D4
                0x00000000800152e4                func_800152E4
                0x0000000080015370                func_80015370
                0x00000000800154ec                func_800154EC
                0x0000000080015630                func_80015630
                0x00000000800156d0                func_800156D0
                0x0000000080015b50                func_80015B50
                0x0000000080015b8c                func_80015B8C
                0x0000000080015fe8                func_80015FE8
                0x000000008001613c                func_8001613C
                0x00000000800163e8                func_800163E8
                0x00000000800164e4                func_800164E4
                0x0000000080016520                func_80016520
                0x00000000800165e4                func_800165E4
                0x000000008001679c                func_8001679C
                0x0000000080016940                func_80016940
                0x00000000800169c8                func_800169C8
                0x0000000080016a84                func_80016A84
                0x0000000080016b18                func_80016B18
                0x0000000080016bec                func_80016BEC
                0x0000000080016cb0                func_80016CB0
                0x0000000080016d60                func_80016D60
                0x0000000080016d98                func_80016D98
                0x0000000080016f88                func_80016F88
                0x0000000080016ffc                func_80016FFC
                0x000000008001700c                func_8001700C
                0x0000000080017094                func_80017094
                0x00000000800170dc                func_800170DC
                0x000000008001715c                func_8001715C
                0x00000000800171e4                func_800171E4
                0x00000000800172a0                func_800172A0
                0x000000008001737c                func_8001737C
                0x00000000800173e0                func_800173E0
                0x0000000080017428                func_80017428
                0x0000000080017470                func_80017470
                0x00000000800174b8                func_800174B8
                0x00000000800175b8                func_800175B8
                0x00000000800175d4                func_800175D4
                0x00000000800177f8                func_800177F8
                0x0000000080017998                func_80017998
                0x0000000080017bd4                func_80017BD4
                0x0000000080017d04                func_80017D04
                0x0000000080017fa0                func_80017FA0
                0x000000008001817c                func_8001817C
                0x0000000080018278                func_80018278
                0x000000008001829c                func_8001829C
                0x00000000800182c4                func_800182C4
                0x0000000080018318                func_80018318
                0x00000000800183c4                func_800183C4
                0x0000000080018484                func_80018484
                0x0000000080018524                func_80018524
 build/asm/191F0.s.o(.text)
 .text          0x00000000800185f0     0x2ae0 build/asm/191F0.s.o
                0x00000000800185f0                func_800185F0
                0x0000000080018638                func_80018638
                0x0000000080018684                func_80018684
                0x00000000800186b4                func_800186B4
                0x00000000800186f8                unk_walkingDustSomething
                0x00000000800187f8                func_800187F8
                0x00000000800188c4                func_800188C4
                0x0000000080018918                func_80018918
                0x0000000080018b14                func_80018B14
                0x0000000080018bf0                func_80018BF0
                0x0000000080018cf8                func_80018CF8
                0x0000000080018d34                func_80018D34
                0x0000000080018db4                func_80018DB4
                0x0000000080018df4                battleDamageSomething
                0x0000000080018f60                func_80018F60
                0x0000000080019324                func_80019324
                0x0000000080019354                func_80019354
                0x00000000800193b4                func_800193B4
                0x00000000800195e0                func_800195E0
                0x0000000080019738                func_80019738
                0x0000000080019918                func_80019918
                0x0000000080019a70                func_80019A70
                0x0000000080019a98                func_80019A98
                0x0000000080019ca4                updateBattleFenceState
                0x0000000080019ccc                drawBattleFence_and_something
                0x000000008001a238                func_8001A238
                0x000000008001a268                func_8001A268
                0x000000008001a398                func_8001A398
                0x000000008001a620                func_8001A620
                0x000000008001a834                func_8001A834
 build/asm/1BCD0.s.o(.text)
 .text          0x000000008001b0d0     0x1490 build/asm/1BCD0.s.o
                0x000000008001b0d0                func_8001B0D0
                0x000000008001b108                particlePosSomething
                0x000000008001b19c                func_8001B19C
                0x000000008001b448                func_8001B448
 build/asm/1D160.s.o(.text)
 .text          0x000000008001c560     0x1350 build/asm/1D160.s.o
                0x000000008001c560                func_8001C560
                0x000000008001c5f4                startBattleWithNormalEnemy
                0x000000008001c8c4                UNK_BossBattleInit
                0x000000008001cacc                battleCameraSomething
                0x000000008001cfe8                func_8001CFE8
                0x000000008001d358                func_8001D358
                0x000000008001d474                func_8001D474
                0x000000008001d538                func_8001D538
                0x000000008001d640                func_8001D640
                0x000000008001d820                func_8001D820
                0x000000008001d828                calculateDroppedItem
                0x000000008001d89c                func_8001D89C
 build/asm/1E4B0.s.o(.text)
 .text          0x000000008001d8b0      0x940 build/asm/1E4B0.s.o
                0x000000008001d8b0                updateAnim
                0x000000008001d924                func_8001D924
                0x000000008001db38                func_8001DB38
                0x000000008001dc78                func_8001DC78
                0x000000008001e0ac                animateBrian
                0x000000008001e138                func_8001E138
 build/src/1EDF0.c.o(.text)
 .text          0x000000008001e1f0     0x2f80 build/src/1EDF0.c.o
                0x000000008001e1f0                func_8001E1F0
                0x000000008001e25c                HUDSometing
                0x000000008001e7fc                func_8001E7FC
                0x000000008001ea84                func_8001EA84
                0x000000008001ebdc                func_8001EBDC
                0x000000008001ed5c                func_8001ED5C
                0x000000008001f3dc                func_8001F3DC
                0x000000008001f818                npcTalkBubbleSomething
                0x000000008001f900                func_8001F900
                0x000000008001f9b0                func_8001F9B0
                0x000000008001fa60                func_8001FA60
                0x000000008001fb94                func_8001FB94
                0x000000008001fcf8                func_8001FCF8
                0x000000008001feec                loadBattle_UNCONFIRMED
                0x00000000800202e4                unk_UsesBrianOREnemyPos
                0x00000000800203a8                func_800203A8
                0x00000000800203b0                func_800203B0
                0x00000000800203b8                func_800203B8
                0x00000000800203c0                func_800203C0
                0x00000000800203c8                func_800203C8
                0x00000000800203d0                func_800203D0
                0x0000000080020888                func_80020888
                0x00000000800208b8                func_800208B8
                0x0000000080020988                func_80020988
                0x0000000080020b4c                func_80020B4C
                0x0000000080020d18                countSpellNameCharacters
                0x0000000080020d4c                func_80020D4C
                0x0000000080020e24                func_80020E24
                0x0000000080020e2c                func_80020E2C
                0x0000000080020f8c                func_80020F8C
                0x00000000800210fc                func_800210FC
 build/src/inventory.c.o(.text)
 .text          0x0000000080021170     0x1770 build/src/inventory.c.o
                0x0000000080021170                initInventory
                0x0000000080021214                CheckIfLastInvSlotEmpty
                0x0000000080021240                func_80021240
                0x00000000800212a0                addItemToEmptySlot
                0x00000000800212e4                useItemIfAble
                0x00000000800213d8                func_800213D8
                0x0000000080021434                func_80021434
                0x0000000080021524                inventory
                0x000000008002224c                UseKeyItem
                0x0000000080022260                useHealingItem
                0x00000000800222b4                UNK_Wings
                0x0000000080022300                UNK_SpellItem
                0x000000008002233c                func_8002233C
                0x000000008002234c                func_8002234C
                0x0000000080022490                useWings
                0x000000008002260c                func_8002260C
                0x000000008002263c                drawItemMenu
 build/asm/screen_dim.s.o(.text)
 .text          0x00000000800228e0      0x260 build/asm/screen_dim.s.o
                0x00000000800228e0                initScreenDimStateAndTimer
                0x00000000800228f8                unk_dimsScreenWhenOpeningMenu
                0x0000000080022b08                dimScreen
 build/asm/23740.s.o(.text)
 .text          0x0000000080022b40      0x490 build/asm/23740.s.o
                0x0000000080022b40                UNK_AnimateNPC
                0x0000000080022f60                func_80022F60
 build/asm/srand.s.o(.text)
 .text          0x0000000080022fd0     0x1290 build/asm/srand.s.o
                0x0000000080022fd0                srand
                0x0000000080023028                func_80023028
                0x00000000800231b0                func_800231B0
                0x0000000080023210                func_80023210
                0x00000000800232f4                func_800232F4
                0x0000000080023360                rotatingModelsSomething
                0x0000000080023500                func_80023500
                0x0000000080023570                func_80023570
                0x00000000800236cc                func_800236CC
                0x000000008002371c                func_8002371C
                0x000000008002387c                func_8002387C
                0x00000000800238e4                func_800238E4
                0x0000000080023974                func_80023974
                0x0000000080023a08                func_80023A08
                0x0000000080023bcc                func_80023BCC
                0x0000000080023c1c                func_80023C1C
                0x0000000080023df4                func_80023DF4
                0x0000000080023e80                func_80023E80
                0x000000008002413c                func_8002413C
 build/asm/24E60.s.o(.text)
 .text          0x0000000080024260      0x430 build/asm/24E60.s.o
                0x0000000080024260                loadData
                0x0000000080024330                func_80024330
 build/src/25290.c.o(.text)
 .text          0x0000000080024690     0x1f60 build/src/25290.c.o
                0x0000000080024690                func_80024690
                0x0000000080024704                alUNKNOWN
                0x00000000800248c8                func_800248C8
                0x0000000080024a48                func_80024A48
                0x0000000080024b1c                func_80024B1C
                0x0000000080024bec                func_80024BEC
                0x0000000080025040                func_80025040
                0x00000000800250e8                func_800250E8
                0x000000008002513c                func_8002513C
                0x00000000800252d8                func_800252D8
                0x0000000080025364                func_80025364
                0x00000000800253f0                func_800253F0
                0x000000008002543c                func_8002543C
                0x0000000080025488                func_80025488
                0x0000000080025634                func_80025634
                0x000000008002568c                func_8002568C
                0x00000000800256d4                func_800256D4
                0x000000008002571c                func_8002571C
                0x00000000800258f8                loadSoundEffect
                0x0000000080025938                func_80025938
                0x0000000080025984                func_80025984
                0x0000000080025b3c                func_80025B3C
                0x0000000080025b8c                func_80025B8C
                0x0000000080025bd8                soundEffectSomething
                0x0000000080025e0c                func_80025E0C
                0x0000000080026214                func_80026214
                0x00000000800262f4                func_800262F4
                0x00000000800263a8                func_800263A8
                0x0000000080026434                func_80026434
                0x0000000080026488                func_80026488
                0x000000008002650c                func_8002650C
                0x0000000080026554                func_80026554
 build/asm/271F0.s.o(.text)
 .text          0x00000000800265f0      0x450 build/asm/271F0.s.o
                0x00000000800265f0                initBGM
                0x0000000080026658                startBGM
                0x00000000800267b8                updateBGM
                0x00000000800267f8                PlayVictoryTheme
                0x000000008002684c                updateBGM_mapTransition
                0x00000000800268d4                func_800268D4
                0x000000008002699c                func_8002699C
                0x0000000080026a04                setBGMVolume
 build/src/27640.c.o(.text)
 .text          0x0000000080026a40     0x4ad0 build/src/27640.c.o
                0x0000000080026a40                func_80026A40
                0x0000000080026a7c                openPauseMenu
                0x0000000080026d1c                func_80026D1C
                0x0000000080026f34                Pause_Status
                0x00000000800278b0                Pause_Environment
                0x0000000080028624                Pause_Map
                0x0000000080029448                Pause_Elements
                0x0000000080029b58                drawMenues
                0x000000008002a0b8                func_8002A0B8
                0x000000008002a668                pauseMenuGfxSomething
                0x000000008002ab64                func_8002AB64
                0x000000008002af70                func_8002AF70
                0x000000008002b364                func_8002B364
 build/asm/2C110.s.o(.text)
 .text          0x000000008002b510     0x30d0 build/asm/2C110.s.o
                0x000000008002b510                showPauseOrInnMenu
                0x000000008002b57c                func_8002B57C
                0x000000008002b6f0                func_8002B6F0
                0x000000008002b8c4                func_8002B8C4
                0x000000008002bca0                func_8002BCA0
                0x000000008002c818                func_8002C818
                0x000000008002d5d4                func_8002D5D4
                0x000000008002d614                func_8002D614
                0x000000008002d748                func_8002D748
                0x000000008002d8bc                beginSaveGame
                0x000000008002dbe0                func_8002DBE0
                0x000000008002dd18                controllerFunc1
                0x000000008002df6c                func_8002DF6C
                0x000000008002dfd0                drawSaveLoadMenu
                0x000000008002e234                createSaveFile
                0x000000008002e404                loadSave
 build/asm/2F1E0.s.o(.text)
 .text          0x000000008002e5e0     0x2830 build/asm/2F1E0.s.o
                0x000000008002e5e0                func_8002E5E0
                0x000000008002e628                func_8002E628
                0x000000008002e768                printMsg
                0x000000008002eaa0                func_8002EAA0
                0x000000008002fb30                func_8002FB30
                0x000000008002fd90                func_8002FD90
                0x000000008002fea4                func_8002FEA4
                0x0000000080030068                func_80030068
                0x00000000800303e8                func_800303E8
                0x0000000080030668                func_80030668
                0x0000000080030754                func_80030754
                0x00000000800307d8                func_800307D8
                0x0000000080030bf0                func_80030BF0
                0x0000000080030d70                func_80030D70
                0x0000000080030d80                func_80030D80
 build/asm/31A10.s.o(.text)
 .text          0x0000000080030e10      0x4f0 build/asm/31A10.s.o
                0x0000000080030e10                func_80030E10
                0x0000000080030e58                loadTextRes
                0x0000000080030ea0                func_80030EA0
 build/asm/31F00.s.o(.text)
 .text          0x0000000080031300      0x940 build/asm/31F00.s.o
                0x0000000080031300                func_80031300
                0x00000000800314c0                controllerButtonsSomething
                0x0000000080031574                func_80031574
                0x0000000080031800                func_80031800
                0x0000000080031890                func_80031890
                0x000000008003195c                func_8003195C
                0x00000000800319e0                func_800319E0
                0x0000000080031a44                func_80031A44
                0x0000000080031acc                func_80031ACC
                0x0000000080031bb0                func_80031BB0
                0x0000000080031c0c                func_80031C0C
 build/asm/32840.s.o(.text)
 .text          0x0000000080031c40       0xb0 build/asm/32840.s.o
                0x0000000080031c40                loadTitleScreenData
                0x0000000080031c78                loadCredits_and_StoryData
                0x0000000080031cb0                loadCreditsData
 build/asm/328F0.s.o(.text)
 .text          0x0000000080031cf0     0x1b60 build/asm/328F0.s.o
                0x0000000080031cf0                func_80031CF0
                0x0000000080031dd4                func_80031DD4
                0x0000000080031f1c                func_80031F1C
                0x0000000080031f74                func_80031F74
                0x0000000080031fbc                func_80031FBC
                0x0000000080032020                func_80032020
                0x0000000080032040                func_80032040
                0x0000000080032218                func_80032218
                0x000000008003228c                func_8003228C
                0x000000008003232c                func_8003232C
                0x0000000080032560                func_80032560
                0x00000000800325a8                func_800325A8
                0x00000000800325fc                func_800325FC
                0x000000008003265c                func_8003265C
                0x0000000080032704                func_80032704
 build/asm/initialize.s.o(.text)
 .text          0x0000000080033850      0x290 build/asm/initialize.s.o
                0x0000000080033850                osInitialize
 build/asm/createthread.s.o(.text)
 .text          0x0000000080033ae0      0x150 build/asm/createthread.s.o
                0x0000000080033ae0                osCreateThread
 build/asm/startthread.s.o(.text)
 .text          0x0000000080033c30      0x150 build/asm/startthread.s.o
                0x0000000080033c30                osStartThread
 build/asm/pimgr.s.o(.text)
 .text          0x0000000080033d80      0x190 build/asm/pimgr.s.o
                0x0000000080033d80                osCreatePiManager
 build/asm/createmesgqueue.s.o(.text)
 .text          0x0000000080033f10       0x30 build/asm/createmesgqueue.s.o
                0x0000000080033f10                osCreateMesgQueue
 build/asm/visetevent.s.o(.text)
 .text          0x0000000080033f40       0x70 build/asm/visetevent.s.o
                0x0000000080033f40                osViSetEvent
 build/asm/seteventmesg.s.o(.text)
 .text          0x0000000080033fb0       0x70 build/asm/seteventmesg.s.o
                0x0000000080033fb0                osSetEventMesg
 build/asm/recvmesg.s.o(.text)
 .text          0x0000000080034020      0x140 build/asm/recvmesg.s.o
                0x0000000080034020                osRecvMesg
 build/asm/setintmask.s.o(.text)
 .text          0x0000000080034160       0xa0 build/asm/setintmask.s.o
                0x0000000080034160                osSetIntMask
 build/asm/sendmesg.s.o(.text)
 .text          0x0000000080034200      0x150 build/asm/sendmesg.s.o
                0x0000000080034200                osSendMesg
 build/asm/writebackdcacheall.s.o(.text)
 .text          0x0000000080034350       0x30 build/asm/writebackdcacheall.s.o
                0x0000000080034350                osWritebackDCacheAll
 build/asm/sptaskyield.s.o(.text)
 .text          0x0000000080034380       0x20 build/asm/sptaskyield.s.o
                0x0000000080034380                osSpTaskYield
 build/asm/sptaskyielded.s.o(.text)
 .text          0x00000000800343a0       0x80 build/asm/sptaskyielded.s.o
                0x00000000800343a0                osSpTaskYielded
 build/asm/sptask.s.o(.text)
 .text          0x0000000080034420      0x2c0 build/asm/sptask.s.o
                0x0000000080034420                _VirtualToPhysicalTask
                0x000000008003452c                osSpTaskLoad
                0x0000000080034694                osSpTaskStartGo
 build/asm/virepeatline.s.o(.text)
 .text          0x00000000800346e0       0x70 build/asm/virepeatline.s.o
                0x00000000800346e0                osViRepeatLine
 build/asm/viswapbuf.s.o(.text)
 .text          0x0000000080034750       0x50 build/asm/viswapbuf.s.o
                0x0000000080034750                osViSwapBuffer
 build/asm/vigetcurrframebuf.s.o(.text)
 .text          0x00000000800347a0       0xa0 build/asm/vigetcurrframebuf.s.o
                0x00000000800347a0                osViGetCurrentFramebuffer
 build/asm/vimgr.s.o(.text)
 .text          0x0000000080034840      0x360 build/asm/vimgr.s.o
                0x0000000080034840                osCreateViManager
                0x00000000800349c8                viMgrMain
 build/asm/visetmode.s.o(.text)
 .text          0x0000000080034ba0       0x70 build/asm/visetmode.s.o
                0x0000000080034ba0                osViSetMode
 build/asm/visetspecial.s.o(.text)
 .text          0x0000000080034c10      0x1c0 build/asm/visetspecial.s.o
                0x0000000080034c10                osViSetSpecialFeatures
 build/asm/virtualtophysical.s.o(.text)
 .text          0x0000000080034dd0       0x80 build/asm/virtualtophysical.s.o
                0x0000000080034dd0                osVirtualToPhysical
 build/asm/writebackdcache.s.o(.text)
 .text          0x0000000080034e50       0x80 build/asm/writebackdcache.s.o
                0x0000000080034e50                osWritebackDCache
 build/asm/gettime.s.o(.text)
 .text          0x0000000080034ed0       0x90 build/asm/gettime.s.o
                0x0000000080034ed0                osGetTime
 build/asm/sqrtf.s.o(.text)
 .text          0x0000000080034f60       0x10 build/asm/sqrtf.s.o
                0x0000000080034f60                _nsqrtf
 build/asm/position.s.o(.text)
 .text          0x0000000080034f70      0x220 build/asm/position.s.o
                0x0000000080034f70                guPositionF
                0x0000000080035120                guPosition
 build/asm/sins.s.o(.text)
 .text          0x0000000080035190       0x70 build/asm/sins.s.o
                0x0000000080035190                sins
 build/asm/mtxutil.s.o(.text)
 .text          0x0000000080035200      0x270 build/asm/mtxutil.s.o
                0x0000000080035200                guMtxF2L
                0x0000000080035300                guMtxIdentF
                0x0000000080035388                guMtxIdent
                0x00000000800353b8                guMtxL2F
 build/asm/mtxcatf.s.o(.text)
 .text          0x0000000080035470      0x210 build/asm/mtxcatf.s.o
                0x0000000080035470                guMtxXFMF
                0x0000000080035510                guMtxCatF
 build/asm/sinf.s.o(.text)
 .text          0x0000000080035680      0x1c0 build/asm/sinf.s.o
                0x0000000080035680                sinf
 build/asm/ortho.s.o(.text)
 .text          0x0000000080035840      0x1c0 build/asm/ortho.s.o
                0x0000000080035840                guOrthoF
                0x0000000080035994                guOrtho
 build/asm/perspective.s.o(.text)
 .text          0x0000000080035a00      0x290 build/asm/perspective.s.o
                0x0000000080035a00                guPerspectiveF
                0x0000000080035c30                guPerspective
 build/asm/lookatref.s.o(.text)
 .text          0x0000000080035c90      0x4c0 build/asm/lookatref.s.o
                0x0000000080035c90                guLookAtReflectF
                0x00000000800360d0                guLookAtReflect
 build/asm/translate.s.o(.text)
 .text          0x0000000080036150       0xa0 build/asm/translate.s.o
                0x0000000080036150                guTranslateF
                0x0000000080036198                guTranslate
 build/asm/cosf.s.o(.text)
 .text          0x00000000800361f0      0x170 build/asm/cosf.s.o
                0x00000000800361f0                cosf
 build/asm/sprintf.s.o(.text)
 .text          0x0000000080036360       0x80 build/asm/sprintf.s.o
                0x0000000080036360                proutSprintf
                0x0000000080036384                sprintf
 build/asm/invalicache.s.o(.text)
 .text          0x00000000800363e0       0x80 build/asm/invalicache.s.o
                0x00000000800363e0                osInvalICache
 build/asm/invaldcache.s.o(.text)
 .text          0x0000000080036460       0xb0 build/asm/invaldcache.s.o
                0x0000000080036460                osInvalDCache
 build/asm/pidma.s.o(.text)
 .text          0x0000000080036510      0x110 build/asm/pidma.s.o
                0x0000000080036510                osPiStartDma
 build/asm/heapinit.s.o(.text)
 .text          0x0000000080036620       0x40 build/asm/heapinit.s.o
                0x0000000080036620                alHeapInit
 build/asm/heapalloc.s.o(.text)
 .text          0x0000000080036660       0x60 build/asm/heapalloc.s.o
                0x0000000080036660                alHeapDBAlloc
 build/asm/aisetfreq.s.o(.text)
 .text          0x00000000800366c0      0x220 build/asm/aisetfreq.s.o
                0x00000000800366c0                osAiSetFrequency
                0x0000000080036820                alUnlink
                0x0000000080036850                alLink
                0x0000000080036874                alClose
                0x00000000800368ac                alInit
 build/asm/seqpsetvol.s.o(.text)
 .text          0x00000000800368e0       0x40 build/asm/seqpsetvol.s.o
                0x00000000800368e0                alSeqpSetVol
 build/asm/synthesizer.s.o(.text)
 .text          0x0000000080036920      0x6e0 build/asm/synthesizer.s.o
                0x0000000080036920                func_80036920
                0x0000000080036928                _timeToSamplesNoRound
                0x0000000080036980                _freePVoice
                0x00000000800369b8                _collectPVoices
                0x0000000080036a18                __freeParam
                0x0000000080036a30                __allocParam
                0x0000000080036a60                func_80036A60
                0x0000000080036a68                alAudioFrame
                0x0000000080036d00                alSynNew
 build/asm/aigetlen.s.o(.text)
 .text          0x0000000080037000       0x10 build/asm/aigetlen.s.o
                0x0000000080037000                osAiGetLength
 build/asm/aisetnextbuf.s.o(.text)
 .text          0x0000000080037010       0xb0 build/asm/aisetnextbuf.s.o
                0x0000000080037010                osAiSetNextBuffer
 build/asm/n_alseqpgetvol.s.o(.text)
 .text          0x00000000800370c0       0x10 build/asm/n_alseqpgetvol.s.o
                0x00000000800370c0                n_alSeqpGetVol
 build/asm/csplayer.s.o(.text)
 .text          0x00000000800370d0     0x1230 build/asm/csplayer.s.o
                0x00000000800370d0                __CSPPostNextSeqEvent
                0x0000000080037140                func_80037140
                0x0000000080037174                func_80037174
                0x000000008003717c                func_8003717C
                0x000000008003734c                func_8003734C
                0x0000000080037b74                func_80037B74
                0x0000000080037b7c                func_80037B7C
                0x0000000080038190                alCSPNew
 build/asm/bnkf.s.o(.text)
 .text          0x0000000080038300      0x250 build/asm/bnkf.s.o
                0x0000000080038300                func_80038300
                0x0000000080038308                func_80038308
                0x0000000080038310                func_80038310
                0x00000000800383fc                func_800383FC
                0x0000000080038404                alBnkfNew
                0x0000000080038508                alSeqFileNew
 build/asm/seqpsetbank.s.o(.text)
 .text          0x0000000080038550       0x40 build/asm/seqpsetbank.s.o
                0x0000000080038550                alSeqpSetBank
 build/asm/cseq.s.o(.text)
 .text          0x0000000080038590      0xac0 build/asm/cseq.s.o
                0x0000000080038590                alCSeqGetLoc
                0x0000000080038630                alCSeqSetLoc
                0x00000000800386d0                __getTrackByte
                0x0000000080038794                __readVarLen
                0x00000000800387ec                func_800387EC
                0x00000000800387f4                alCSeqNextEvent
                0x0000000080038aec                alCSeqNew
                0x0000000080038c00                alCSeqNewMarker
                0x0000000080038d6c                alCSeqGetTicks
                0x0000000080038d74                alCSeqSecToTicks
                0x0000000080038e70                alCSeqTicksToSec
                0x0000000080038edc                __alCSeqNextDelta
 build/asm/cspsetseq.s.o(.text)
 .text          0x0000000080039050       0x40 build/asm/cspsetseq.s.o
                0x0000000080039050                alCSPSetSeq
 build/asm/seqpplay.s.o(.text)
 .text          0x0000000080039090       0x30 build/asm/seqpplay.s.o
                0x0000000080039090                alSeqpPlay
 build/asm/seqpstop.s.o(.text)
 .text          0x00000000800390c0       0x30 build/asm/seqpstop.s.o
                0x00000000800390c0                alSeqpStop
 build/asm/seqpgetstate.s.o(.text)
 .text          0x00000000800390f0       0x10 build/asm/seqpgetstate.s.o
                0x00000000800390f0                alSeqpGetState
 build/asm/sndplayer.s.o(.text)
 .text          0x0000000080039100      0x710 build/asm/sndplayer.s.o
                0x0000000080039100                _removeEvents
                0x000000008003917c                func_8003917C
                0x0000000080039184                func_80039184
                0x000000008003918c                _handleEvent
                0x00000000800396d4                alSndpNew
 build/asm/sndpallocate.s.o(.text)
 .text          0x0000000080039810       0xa0 build/asm/sndpallocate.s.o
                0x0000000080039810                alSndpAllocate
 build/asm/sndpsetsound.s.o(.text)
 .text          0x00000000800398b0       0x20 build/asm/sndpsetsound.s.o
                0x00000000800398b0                alSndpSetSound
 build/asm/sndpgetstate.s.o(.text)
 .text          0x00000000800398d0       0x20 build/asm/sndpgetstate.s.o
                0x00000000800398d0                alSndpGetState
 build/asm/sndplay.s.o(.text)
 .text          0x00000000800398f0       0x70 build/asm/sndplay.s.o
                0x00000000800398f0                alSndpPlay
 build/asm/sndpstop.s.o(.text)
 .text          0x0000000080039960       0x50 build/asm/sndpstop.s.o
                0x0000000080039960                alSndpStop
 build/asm/sndpsetpitch.s.o(.text)
 .text          0x00000000800399b0       0x60 build/asm/sndpsetpitch.s.o
                0x00000000800399b0                alSndpSetPitch
 build/asm/sndpsetvol.s.o(.text)
 .text          0x0000000080039a10       0x60 build/asm/sndpsetvol.s.o
                0x0000000080039a10                alSndpSetVol
 build/asm/sndpsetpan.s.o(.text)
 .text          0x0000000080039a70       0x60 build/asm/sndpsetpan.s.o
                0x0000000080039a70                alSndpSetPan
 build/asm/ll.s.o(.text)
 .text          0x0000000080039ad0      0x2c0 build/asm/ll.s.o
                0x0000000080039ad0                func_80039AD0
                0x0000000080039afc                func_80039AFC
                0x0000000080039b38                func_80039B38
                0x0000000080039b74                func_80039B74
                0x0000000080039ba0                func_80039BA0
                0x0000000080039bdc                func_80039BDC
                0x0000000080039c38                func_80039C38
                0x0000000080039c68                func_80039C68
                0x0000000080039cc8                func_80039CC8
                0x0000000080039d64                func_80039D64
 build/asm/pfsinitpak.s.o(.text)
 .text          0x0000000080039d90      0x270 build/asm/pfsinitpak.s.o
                0x0000000080039d90                osPfsInitPak
 build/asm/motor.s.o(.text)
 .text          0x000000008003a000      0x7a0 build/asm/motor.s.o
                0x000000008003a000                osMotorStop
                0x000000008003a1a0                osMotorStart
                0x000000008003a340                _MakeMotorData
                0x000000008003a4bc                osMotorInit
 build/asm/deletedfuncs.s.o(.text)
 .text          0x000000008003a7a0       0x40 build/asm/deletedfuncs.s.o
                0x000000008003a7a0                VOID_EMPTY_FUNC2
                0x000000008003a7bc                emptyDEBUGprintPfsErrorData
 build/asm/controller.s.o(.text)
 .text          0x000000008003a7e0      0x3c0 build/asm/controller.s.o
                0x000000008003a7e0                osContInit
                0x000000008003a9d8                __osContGetInitData
                0x000000008003aaa8                __osPackRequestData
 build/asm/contsetch.s.o(.text)
 .text          0x000000008003aba0       0x70 build/asm/contsetch.s.o
                0x000000008003aba0                osContSetCh
 build/asm/contreaddata.s.o(.text)
 .text          0x000000008003ac10      0x220 build/asm/contreaddata.s.o
                0x000000008003ac10                osContStartReadData
                0x000000008003ac9c                osContGetReadData
                0x000000008003ad44                __osPackReadData
 build/asm/pfsfilestate.s.o(.text)
 .text          0x000000008003ae30      0x2f0 build/asm/pfsfilestate.s.o
                0x000000008003ae30                osPfsFileState
 build/asm/pfsfreeblocks.s.o(.text)
 .text          0x000000008003b120      0x150 build/asm/pfsfreeblocks.s.o
                0x000000008003b120                osPfsFreeBlocks
 build/asm/pfsallocatefile.s.o(.text)
 .text          0x000000008003b270      0x7b0 build/asm/pfsallocatefile.s.o
                0x000000008003b270                osPfsAllocateFile
                0x000000008003b6f4                __osPfsDeclearPage
                0x000000008003b958                __osClearPage
 build/asm/pfsdeletefile.s.o(.text)
 .text          0x000000008003ba20      0x610 build/asm/pfsdeletefile.s.o
                0x000000008003ba20                osPfsDeleteFile
                0x000000008003bd00                __osPfsReleasePages
                0x000000008003bf38                __osBlockSum
 build/asm/pfsreadwritefile.s.o(.text)
 .text          0x000000008003c030      0x500 build/asm/pfsreadwritefile.s.o
                0x000000008003c030                __osPfsGetNextPage
                0x000000008003c12c                osPfsReadWriteFile
 build/asm/__osGetId.s.o(.text)
 .text          0x000000008003c530      0x260 build/asm/__osGetId.s.o
                0x000000008003c530                func_8003C530
 build/asm/pfsnumfiles.s.o(.text)
 .text          0x000000008003c790      0x150 build/asm/pfsnumfiles.s.o
                0x000000008003c790                osPfsNumFiles
 build/asm/contquery.s.o(.text)
 .text          0x000000008003c8e0       0xb0 build/asm/contquery.s.o
                0x000000008003c8e0                osContStartQuery
                0x000000008003c964                osContGetQuery
 build/asm/setsr.s.o(.text)
 .text          0x000000008003c990       0x10 build/asm/setsr.s.o
                0x000000008003c990                __osSetSR
 build/asm/getsr.s.o(.text)
 .text          0x000000008003c9a0       0x10 build/asm/getsr.s.o
                0x000000008003c9a0                __osGetSR
 build/asm/setfpccsr.s.o(.text)
 .text          0x000000008003c9b0       0x10 build/asm/setfpccsr.s.o
                0x000000008003c9b0                __osSetFpcCsr
 build/asm/sprawread.s.o(.text)
 .text          0x000000008003c9c0       0x50 build/asm/sprawread.s.o
                0x000000008003c9c0                __osSpRawReadIo
 build/asm/sprawwrite.s.o(.text)
 .text          0x000000008003ca10       0x50 build/asm/sprawwrite.s.o
                0x000000008003ca10                __osSpRawWriteIo
 build/asm/exceptasm.s.o(.text)
 .text          0x000000008003ca60      0x910 build/asm/exceptasm.s.o
                0x000000008003ca60                func_8003CA60
                0x000000008003ca70                func_8003CA70
                0x000000008003cfa4                send_mesg
                0x000000008003d08c                __osEnqueueAndYield
                0x000000008003d18c                __osEnqueueThread
                0x000000008003d1d4                __osPopThread
                0x000000008003d1e4                __osDispatchThread
 build/asm/maptlbrdb.s.o(.text)
 .text          0x000000008003d370       0x60 build/asm/maptlbrdb.s.o
                0x000000008003d370                osMapTLBRdb
 build/asm/pirawread.s.o(.text)
 .text          0x000000008003d3d0       0x60 build/asm/pirawread.s.o
                0x000000008003d3d0                osPiRawReadIo
 build/asm/bzero.s.o(.text)
 .text          0x000000008003d430       0xa0 build/asm/bzero.s.o
                0x000000008003d430                bzero
 build/asm/interrupt.s.o(.text)
 .text          0x000000008003d4d0       0x40 build/asm/interrupt.s.o
                0x000000008003d4d0                __osDisableInt
                0x000000008003d4f0                __osRestoreInt
 build/asm/thread.s.o(.text)
 .text          0x000000008003d510       0x40 build/asm/thread.s.o
                0x000000008003d510                __osDequeueThread
 build/asm/cartrominit.s.o(.text)
 .text          0x000000008003d550      0x100 build/asm/cartrominit.s.o
                0x000000008003d550                osCartRomInit
 build/asm/leodiskinit.s.o(.text)
 .text          0x000000008003d650      0x100 build/asm/leodiskinit.s.o
                0x000000008003d650                osLeoDiskInit
 build/asm/siacsDuplicate.s.o(.text)
 .text          0x000000008003d750       0xc0 build/asm/siacsDuplicate.s.o
                0x000000008003d750                func_8003D750
                0x000000008003d7a0                __osSiGetAccess_8003d7a0
                0x000000008003d7e4                __osSiRelAccess_8003d7e4
 build/asm/getthreadpri.s.o(.text)
 .text          0x000000008003d810       0x20 build/asm/getthreadpri.s.o
                0x000000008003d810                osGetThreadPri
 build/asm/setthreadpri.s.o(.text)
 .text          0x000000008003d830       0xe0 build/asm/setthreadpri.s.o
                0x000000008003d830                osSetThreadPri
 build/asm/pirawdma.s.o(.text)
 .text          0x000000008003d910       0xe0 build/asm/pirawdma.s.o
                0x000000008003d910                osPiRawStartDma
 build/asm/epiramdma.s.o(.text)
 .text          0x000000008003d9f0      0x230 build/asm/epiramdma.s.o
                0x000000008003d9f0                osEPiRawStartDma
 build/asm/devmgr.s.o(.text)
 .text          0x000000008003dc20      0x490 build/asm/devmgr.s.o
                0x000000008003dc20                __osDevMgrMain
 build/asm/vi.s.o(.text)
 .text          0x000000008003e0b0      0x140 build/asm/vi.s.o
                0x000000008003e0b0                __osViInit
 build/asm/spsetstat.s.o(.text)
 .text          0x000000008003e1f0       0x10 build/asm/spsetstat.s.o
                0x000000008003e1f0                __osSpSetStatus
 build/asm/spgetstat.s.o(.text)
 .text          0x000000008003e200       0x10 build/asm/spgetstat.s.o
                0x000000008003e200                __osSpGetStatus
 build/asm/bcopy.s.o(.text)
 .text          0x000000008003e210      0x310 build/asm/bcopy.s.o
                0x000000008003e210                bcopy
 build/asm/spsetpc.s.o(.text)
 .text          0x000000008003e520       0x40 build/asm/spsetpc.s.o
                0x000000008003e520                __osSpSetPc
 build/asm/sprawdma.s.o(.text)
 .text          0x000000008003e560       0x90 build/asm/sprawdma.s.o
                0x000000008003e560                __osSpRawStartDma
 build/asm/sp.s.o(.text)
 .text          0x000000008003e5f0       0x30 build/asm/sp.s.o
                0x000000008003e5f0                __osSpDeviceBusy
 build/asm/timerintr.s.o(.text)
 .text          0x000000008003e620      0x400 build/asm/timerintr.s.o
                0x000000008003e620                __osTimerServicesInit
                0x000000008003e6ac                __osTimerInterrupt
                0x000000008003e824                __osSetTimerIntr
                0x000000008003e898                __osInsertTimer
 build/asm/vigetcurrcontext.s.o(.text)
 .text          0x000000008003ea20       0x10 build/asm/vigetcurrcontext.s.o
                0x000000008003ea20                __osViGetCurrentContext
 build/asm/viswapcontext.s.o(.text)
 .text          0x000000008003ea30      0x360 build/asm/viswapcontext.s.o
                0x000000008003ea30                __osViSwapContext
 build/asm/getcount.s.o(.text)
 .text          0x000000008003ed90       0x10 build/asm/getcount.s.o
                0x000000008003ed90                osGetCount
 build/asm/probetlb.s.o(.text)
 .text          0x000000008003eda0       0xc0 build/asm/probetlb.s.o
                0x000000008003eda0                __osProbeTLB
 build/asm/xprintf.s.o(.text)
 .text          0x000000008003ee60      0xcc0 build/asm/xprintf.s.o
                0x000000008003ee60                _Putfld
                0x000000008003f4d0                _Printf
 build/asm/string.s.o(.text)
 .text          0x000000008003fb20       0xa0 build/asm/string.s.o
                0x000000008003fb20                memcpy
                0x000000008003fb4c                strlen
                0x000000008003fb74                strchr
 build/asm/jammesg.s.o(.text)
 .text          0x000000008003fbc0      0x180 build/asm/jammesg.s.o
                0x000000008003fbc0                osJamMesg
                0x000000008003fd10                osPiGetCmdQueue
 build/asm/syndelete.s.o(.text)
 .text          0x000000008003fd40       0x10 build/asm/syndelete.s.o
                0x000000008003fd40                alSynDelete
 build/asm/event.s.o(.text)
 .text          0x000000008003fd50      0x340 build/asm/event.s.o
                0x000000008003fd50                alEvtqFlushType
                0x000000008003fdfc                alEvtqFlush
                0x000000008003fe6c                alEvtqPostEvent
                0x000000008003ff90                alEvtqNextEvent
                0x000000008004001c                alEvtqNew
 build/asm/drvrNew.s.o(.text)
 .text          0x0000000080040090      0x7a0 build/asm/drvrNew.s.o
                0x0000000080040090                alSaveNew
                0x00000000800400d4                alMainBusNew
                0x0000000080040128                alAuxBusNew
                0x000000008004017c                alResampleNew
                0x0000000080040204                alLoadNew
                0x00000000800402ac                alEnvmixerNew
                0x0000000080040350                init_lpfilter
                0x00000000800403f0                alFxNew
 build/asm/synallocfx.s.o(.text)
 .text          0x0000000080040830       0xa0 build/asm/synallocfx.s.o
                0x0000000080040830                alSynAllocFX
 build/asm/mainbus.s.o(.text)
 .text          0x00000000800408d0      0x150 build/asm/mainbus.s.o
                0x00000000800408d0                alMainBusParam
                0x0000000080040900                alMainBusPull
 build/asm/load.s.o(.text)
 .text          0x0000000080040a20      0xb50 build/asm/load.s.o
                0x0000000080040a20                alLoadParam
                0x0000000080040bf4                alRaw16Pull
                0x0000000080040fa0                _decodeChunk
                0x00000000800410cc                alAdpcmPull
 build/asm/resample.s.o(.text)
 .text          0x0000000080041570      0x300 build/asm/resample.s.o
                0x0000000080041570                alResampleParam
                0x000000008004165c                alResamplePull
 build/asm/env.s.o(.text)
 .text          0x0000000080041870      0xc60 build/asm/env.s.o
                0x0000000080041870                _ldexpf
                0x0000000080041898                _frexpf
                0x0000000080041984                alEnvmixerParam
                0x0000000080041a64                _getRate
                0x0000000080041c34                _pullSubFrame
                0x0000000080041ecc                _getVol
                0x0000000080041f7c                alEnvmixerPull
 build/asm/auxbus.s.o(.text)
 .text          0x00000000800424d0      0x110 build/asm/auxbus.s.o
                0x00000000800424d0                alAuxBusParam
                0x0000000080042500                alAuxBusPull
 build/asm/save.s.o(.text)
 .text          0x00000000800425e0       0xc0 build/asm/save.s.o
                0x00000000800425e0                alSaveParam
                0x0000000080042614                alSavePull
 build/asm/ai.s.o(.text)
 .text          0x00000000800426a0       0x30 build/asm/ai.s.o
                0x00000000800426a0                __osAiDeviceBusy
 build/asm/seqplayer.s.o(.text)
 .text          0x00000000800426d0     0x1940 build/asm/seqplayer.s.o
                0x00000000800426d0                __setInstChanState
                0x0000000080042724                __resetPerfChanState
                0x00000000800427a4                __initFromBank
                0x0000000080042858                func_80042858
                0x0000000080042860                __vsDelta
                0x0000000080042884                __vsVol
                0x000000008004290c                __seqpReleaseVoice
                0x0000000080042a38                __voiceNeedsNoteKill
                0x0000000080042ae0                __unmapVoice
                0x0000000080042b50                __postNextSeqEvent
                0x0000000080042c2c                __handleMetaMsg
                0x0000000080042ca4                __vsPan
                0x0000000080042cec                __lookupVoice
                0x0000000080042d60                __mapVoice
                0x0000000080042dd0                __lookupSoundQuick
                0x0000000080042ecc                __handleMIDIMsg
                0x00000000800436e4                func_800436E4
                0x00000000800436ec                __handleNextSeqEvent
                0x0000000080043d10                __seqpStopOsc
                0x0000000080043e14                __initChanState
                0x0000000080043e84                alSeqpNew
 build/asm/synaddplayer.s.o(.text)
 .text          0x0000000080044010       0x50 build/asm/synaddplayer.s.o
                0x0000000080044010                alSynAddPlayer
 build/asm/synstopvoice.s.o(.text)
 .text          0x0000000080044060       0x80 build/asm/synstopvoice.s.o
                0x0000000080044060                alSynStopVoice
 build/asm/synfreevoice.s.o(.text)
 .text          0x00000000800440e0       0xb0 build/asm/synfreevoice.s.o
                0x00000000800440e0                alSynFreeVoice
 build/asm/synsetvol.s.o(.text)
 .text          0x0000000080044190       0xa0 build/asm/synsetvol.s.o
                0x0000000080044190                alSynSetVol
 build/asm/synsetpitch.s.o(.text)
 .text          0x0000000080044230       0x90 build/asm/synsetpitch.s.o
                0x0000000080044230                alSynSetPitch
 build/asm/synallocvoice.s.o(.text)
 .text          0x00000000800442c0      0x230 build/asm/synallocvoice.s.o
                0x00000000800442c0                _allocatePVoice
                0x00000000800443a8                alSynAllocVoice
 build/asm/cents2ratio.s.o(.text)
 .text          0x00000000800444f0       0x50 build/asm/cents2ratio.s.o
                0x00000000800444f0                alCents2Ratio
 build/asm/synstartvoiceparam.s.o(.text)
 .text          0x0000000080044540       0xf0 build/asm/synstartvoiceparam.s.o
                0x0000000080044540                alSynStartVoiceParams
 build/asm/synsetpan.s.o(.text)
 .text          0x0000000080044630       0x90 build/asm/synsetpan.s.o
                0x0000000080044630                alSynSetPan
 build/asm/synsetfxmix.s.o(.text)
 .text          0x00000000800446c0       0xa0 build/asm/synsetfxmix.s.o
                0x00000000800446c0                alSynSetFXMix
 build/asm/synstartvoice.s.o(.text)
 .text          0x0000000080044760       0x90 build/asm/synstartvoice.s.o
                0x0000000080044760                alSynStartVoice
 build/asm/siacs.s.o(.text)
 .text          0x00000000800447f0       0xc0 build/asm/siacs.s.o
                0x00000000800447f0                func_800447F0
                0x0000000080044840                __osSiGetAccess
                0x0000000080044884                __osSiRelAccess
 build/asm/pfsgetstatus.s.o(.text)
 .text          0x00000000800448b0      0x240 build/asm/pfsgetstatus.s.o
                0x00000000800448b0                __osPfsGetStatus
                0x0000000080044994                __osPfsRequestOneChannel
                0x0000000080044a54                __osPfsGetOneChannelData
 build/asm/contpfs.s.o(.text)
 .text          0x0000000080044af0      0xd60 build/asm/contpfs.s.o
                0x0000000080044af0                __osSumcalc
                0x0000000080044b4c                __osIdCheckSum
                0x0000000080044bb4                __osRepairPackId
                0x0000000080044fcc                __osCheckPackId
                0x0000000080045164                func_80045164
                0x00000000800453c0                __osCheckId
                0x00000000800454bc                __osPfsRWInode
                0x00000000800457dc                __osPfsSelectBank
 build/asm/contramread.s.o(.text)
 .text          0x0000000080045850      0x360 build/asm/contramread.s.o
                0x0000000080045850                __osContRamRead
                0x0000000080045a6c                __osPackRamReadData
 build/asm/pfschecker.s.o(.text)
 .text          0x0000000080045bb0      0xa60 build/asm/pfschecker.s.o
                0x0000000080045bb0                osPfsChecker
                0x0000000080046274                corrupted_init
                0x0000000080046428                corrupted
 build/asm/pfsisplug.s.o(.text)
 .text          0x0000000080046610      0x340 build/asm/pfsisplug.s.o
                0x0000000080046610                osPfsIsPlug
                0x00000000800467b0                __osPfsRequestData
                0x0000000080046880                __osPfsGetInitData
 build/asm/sirawdma.s.o(.text)
 .text          0x0000000080046950       0xb0 build/asm/sirawdma.s.o
                0x0000000080046950                __osSiRawStartDma
 build/asm/crc.s.o(.text)
 .text          0x0000000080046a00      0x180 build/asm/crc.s.o
                0x0000000080046a00                __osContAddressCrc
                0x0000000080046ab0                __osContDataCrc
 build/asm/contramwrite.s.o(.text)
 .text          0x0000000080046b80      0x360 build/asm/contramwrite.s.o
                0x0000000080046b80                __osContRamWrite
                0x0000000080046d84                _osPackRamWriteData
 build/asm/settimer.s.o(.text)
 .text          0x0000000080046ee0       0xe0 build/asm/settimer.s.o
                0x0000000080046ee0                osSetTimer
 build/asm/pfssearchfile.s.o(.text)
 .text          0x0000000080046fc0      0x1c0 build/asm/pfssearchfile.s.o
                0x0000000080046fc0                osPfsFindFile
 build/asm/si.s.o(.text)
 .text          0x0000000080047180       0x30 build/asm/si.s.o
                0x0000000080047180                __osSiDeviceBusy
 build/asm/leointerrupt.s.o(.text)
 .text          0x00000000800471b0      0x880 build/asm/leointerrupt.s.o
                0x00000000800471b0                __osLeoInterrupt
                0x0000000080047854                __osLeoResume
                0x000000008004793c                _osLeoAbnormalResume
 build/asm/destroythread.s.o(.text)
 .text          0x0000000080047a30      0x100 build/asm/destroythread.s.o
                0x0000000080047a30                osDestroyThread
 build/asm/resetglobalintmask.s.o(.text)
 .text          0x0000000080047b30       0x60 build/asm/resetglobalintmask.s.o
                0x0000000080047b30                __osResetGlobalIntMask
 build/asm/epirawwrite.s.o(.text)
 .text          0x0000000080047b90       0x50 build/asm/epirawwrite.s.o
                0x0000000080047b90                osEPiRawWriteIo
 build/asm/epirawread.s.o(.text)
 .text          0x0000000080047be0       0x50 build/asm/epirawread.s.o
                0x0000000080047be0                osEPiRawReadIo
 build/asm/setglobalintmask.s.o(.text)
 .text          0x0000000080047c30       0x50 build/asm/setglobalintmask.s.o
                0x0000000080047c30                __osSetGlobalIntMask
 build/asm/yieldthread.s.o(.text)
 .text          0x0000000080047c80       0x50 build/asm/yieldthread.s.o
                0x0000000080047c80                osYieldThread
 build/asm/setcompare.s.o(.text)
 .text          0x0000000080047cd0       0x10 build/asm/setcompare.s.o
                0x0000000080047cd0                __osSetCompare
 build/asm/xlitob.s.o(.text)
 .text          0x0000000080047ce0      0x2a0 build/asm/xlitob.s.o
                0x0000000080047ce0                _Litob
 build/asm/xldtob.s.o(.text)
 .text          0x0000000080047f80      0xac0 build/asm/xldtob.s.o
                0x0000000080047f80                _Ldtob
                0x00000000800484e8                _Ldunscale
                0x00000000800484f0                _Genld
 build/asm/copy.s.o(.text)
 .text          0x0000000080048a40       0x80 build/asm/copy.s.o
                0x0000000080048a40                alCopy
 build/asm/filter.s.o(.text)
 .text          0x0000000080048ac0       0x20 build/asm/filter.s.o
                0x0000000080048ac0                alFilterNew
 build/asm/reverb.s.o(.text)
 .text          0x0000000080048ae0      0xc50 build/asm/reverb.s.o
                0x0000000080048ae0                _doModFunc
                0x0000000080048b88                _filterBuffer
                0x0000000080048c40                _saveBuffer
                0x0000000080048dc8                _loadBuffer
                0x0000000080048f54                _loadOutputBuffer
                0x0000000080049178                alFxParamHdl
                0x00000000800493d4                alFxParam
                0x00000000800493ec                alFxPull
 build/asm/seq.s.o(.text)
 .text          0x0000000080049730      0x620 build/asm/seq.s.o
                0x0000000080049730                alSeqGetLoc
                0x000000008004974c                alSeqSetLoc
                0x0000000080049768                alSeqGetTicks
                0x0000000080049770                func_80049770
                0x0000000080049778                readVarLen
                0x00000000800497c4                alSeqNextEvent
                0x0000000080049948                alSeqNewMarker
                0x0000000080049a68                alSeqSecToTicks
                0x0000000080049b4c                alSeqTicksToSec
                0x0000000080049ba0                __alSeqNextDelta
                0x0000000080049bf8                read32
                0x0000000080049c48                read16
                0x0000000080049c78                alSeqNew
 build/asm/synsetpriority.s.o(.text)
 .text          0x0000000080049d50      0x1a0 build/asm/synsetpriority.s.o
                0x0000000080049d50                alSynSetPriority
                0x0000000080049d60                func_80049D60
                0x0000000080049e60                ldiv
                0x0000000080049ef0                main_TEXT_END = .
                0x0000000080049ef0                main_DATA_START = .
                0x0000000080049ef0                main_DATA_END = .
                0x0000000080049ef0                main_BSS_START = .
                0x0000000080049ef0                main_BSS_END = .
                0x000000000004aaf0                main_ROM_END = 0x4aaf0
                0x0000000001000000                __romPos = 0x4aaf0
                0x0000000001000000                __romPos = 0x4aaf0
                0x0000000001000000                . = __romPos
                0x000000000004aaf0                ucode_boot_ROM_START = __romPos
                0x000000000004aaf0                ucode_boot_VRAM = ADDR (.ucode_boot)

.ucode_boot     0x000000000004aaf0       0xd0
                0x000000000004aaf0                ucode_boot_TEXT_START = .
                0x000000000004aaf0                ucode_boot_TEXT_END = .
                0x000000000004aaf0                ucode_boot_DATA_START = .
                0x000000000004aaf0                ucode_boot_bin = .
 build/assets/ucode_boot.bin.o(.data)
 .data          0x000000000004aaf0       0xd0 build/assets/ucode_boot.bin.o
                0x000000000004aaf0                _binary_assets_ucode_boot_bin_start
                0x000000000004abc0                _binary_assets_ucode_boot_bin_end
                0x000000000004abc0                ucode_boot_DATA_END = .
                0x000000000004abc0                ucode_boot_BSS_START = .
                0x000000000004abc0                ucode_boot_BSS_END = .
                0x000000000004abc0                ucode_boot_ROM_END = 0x4abc0
                0x0000000001000000                __romPos = 0x4abc0
                0x0000000001000000                __romPos = 0x4abc0
                0x0000000001000000                . = __romPos
                0x000000000004abc0                ucode_ROM_START = __romPos
                0x000000000004abc0                ucode_VRAM = ADDR (.ucode)

.ucode          0x000000000004abc0     0x1430
                0x000000000004abc0                ucode_TEXT_START = .
                0x000000000004abc0                ucode_TEXT_END = .
                0x000000000004abc0                ucode_DATA_START = .
                0x000000000004abc0                ucode_bin = .
 build/assets/ucode.bin.o(.data)
 .data          0x000000000004abc0     0x1430 build/assets/ucode.bin.o
                0x000000000004abc0                _binary_assets_ucode_bin_start
                0x000000000004bff0                _binary_assets_ucode_bin_end
                0x000000000004bff0                ucode_DATA_END = .
                0x000000000004bff0                ucode_BSS_START = .
                0x000000000004bff0                ucode_BSS_END = .
                0x000000000004bff0                ucode_ROM_END = 0x4bff0
                0x0000000001000000                __romPos = 0x4bff0
                0x0000000001000000                __romPos = 0x4bff0
                0x0000000001000000                . = __romPos
                0x000000000004bff0                _4BFF0_ROM_START = __romPos
                0x000000000004bff0                _4BFF0_VRAM = ADDR (._4BFF0)

._4BFF0         0x000000000004bff0    0x26fe0
                0x000000000004bff0                _4BFF0_TEXT_START = .
                0x000000000004bff0                _4BFF0_TEXT_END = .
                0x000000000004bff0                _4BFF0_DATA_START = .
                0x000000000004bff0                _4BFF0_bin = .
 build/assets/4BFF0.bin.o(.data)
 .data          0x000000000004bff0    0x26fe0 build/assets/4BFF0.bin.o
                0x000000000004bff0                _binary_assets_4BFF0_bin_start
                0x0000000000072fd0                _binary_assets_4BFF0_bin_end
                0x0000000000072fd0                _4BFF0_DATA_END = .
                0x0000000000072fd0                _4BFF0_BSS_START = .
                0x0000000000072fd0                _4BFF0_BSS_END = .
                0x0000000000072fd0                _4BFF0_ROM_END = 0x72fd0
                0x0000000001000000                __romPos = 0x72fd0
                0x0000000001000000                __romPos = 0x72fd0
                0x0000000001000000                . = __romPos
                0x0000000000072fd0                ucode_data_ROM_START = __romPos
                0x0000000000072fd0                ucode_data_VRAM = ADDR (.ucode_data)

.ucode_data     0x0000000000072fd0      0x800
                0x0000000000072fd0                ucode_data_TEXT_START = .
                0x0000000000072fd0                ucode_data_TEXT_END = .
                0x0000000000072fd0                ucode_data_DATA_START = .
                0x0000000000072fd0                ucode_data_bin = .
 build/assets/ucode_data.bin.o(.data)
 .data          0x0000000000072fd0      0x800 build/assets/ucode_data.bin.o
                0x0000000000072fd0                _binary_assets_ucode_data_bin_start
                0x00000000000737d0                _binary_assets_ucode_data_bin_end
                0x00000000000737d0                ucode_data_DATA_END = .
                0x00000000000737d0                ucode_data_BSS_START = .
                0x00000000000737d0                ucode_data_BSS_END = .
                0x00000000000737d0                ucode_data_ROM_END = 0x737d0
                0x0000000001000000                __romPos = 0x737d0
                0x0000000001000000                __romPos = 0x737d0
                0x0000000001000000                . = __romPos
                0x00000000000737d0                _737D0_ROM_START = __romPos
                0x00000000000737d0                _737D0_VRAM = ADDR (._737D0)

._737D0         0x00000000000737d0      0x2c0
                0x00000000000737d0                _737D0_TEXT_START = .
                0x00000000000737d0                _737D0_TEXT_END = .
                0x00000000000737d0                _737D0_DATA_START = .
                0x00000000000737d0                _737D0_bin = .
 build/assets/737D0.bin.o(.data)
 .data          0x00000000000737d0      0x2c0 build/assets/737D0.bin.o
                0x00000000000737d0                _binary_assets_737D0_bin_start
                0x0000000000073a90                _binary_assets_737D0_bin_end
                0x0000000000073a90                _737D0_DATA_END = .
                0x0000000000073a90                _737D0_BSS_START = .
                0x0000000000073a90                _737D0_BSS_END = .
                0x0000000000073a90                _737D0_ROM_END = 0x73a90
                0x0000000001000000                __romPos = 0x73a90
                0x0000000001000000                __romPos = 0x73a90
                0x0000000001000000                . = __romPos
                0x0000000000073a90                _73A90_ROM_START = __romPos
                0x0000000000073a90                _73A90_VRAM = ADDR (._73A90)

._73A90         0x0000000000073a90   0xcd7930
                0x0000000000073a90                _73A90_TEXT_START = .
                0x0000000000073a90                _73A90_TEXT_END = .
                0x0000000000073a90                _73A90_DATA_START = .
                0x0000000000073a90                _73A90_bin = .
 build/assets/73A90.bin.o(.data)
 .data          0x0000000000073a90   0xcd7930 build/assets/73A90.bin.o
                0x0000000000073a90                _binary_assets_73A90_bin_start
                0x0000000000d4b3c0                _binary_assets_73A90_bin_end
                0x0000000000d4b3c0                _73A90_DATA_END = .
                0x0000000000d4b3c0                _73A90_BSS_START = .
                0x0000000000d4b3c0                _73A90_BSS_END = .
                0x0000000000d4b3c0                _73A90_ROM_END = 0xd4b3c0
                0x0000000001000000                __romPos = 0xd4b3c0
                0x0000000001000000                __romPos = 0xd4b3c0
                0x0000000001000000                . = __romPos
                0x0000000000d4b3c0                D4B3C0_ROM_START = __romPos
                0x0000000000d4b3c0                D4B3C0_VRAM = ADDR (.D4B3C0)

.D4B3C0         0x0000000000d4b3c0   0x133440
                0x0000000000d4b3c0                D4B3C0_TEXT_START = .
                0x0000000000d4b3c0                D4B3C0_TEXT_END = .
                0x0000000000d4b3c0                D4B3C0_DATA_START = .
                0x0000000000d4b3c0                D4B3C0_bin = .
 build/assets/D4B3C0.bin.o(.data)
 .data          0x0000000000d4b3c0   0x133440 build/assets/D4B3C0.bin.o
                0x0000000000d4b3c0                _binary_assets_D4B3C0_bin_start
                0x0000000000e7e800                _binary_assets_D4B3C0_bin_end
                0x0000000000e7e800                D4B3C0_DATA_END = .
                0x0000000000e7e800                D4B3C0_BSS_START = .
                0x0000000000e7e800                D4B3C0_BSS_END = .
                0x0000000000e7e800                D4B3C0_ROM_END = 0xe7e800
                0x0000000001000000                __romPos = 0xe7e800
                0x0000000001000000                __romPos = 0xe7e800
                0x0000000001000000                . = __romPos
                0x0000000000e7e800                Instrument_ctl_ROM_START = __romPos
                0x0000000000e7e800                Instrument_ctl_VRAM = ADDR (.Instrument_ctl)

.Instrument_ctl
                0x0000000000e7e800     0x2e10
                0x0000000000e7e800                Instrument_ctl_TEXT_START = .
                0x0000000000e7e800                Instrument_ctl_TEXT_END = .
                0x0000000000e7e800                Instrument_ctl_DATA_START = .
                0x0000000000e7e800                Instrument_ctl_bin = .
 build/assets/Instrument_ctl.bin.o(.data)
 .data          0x0000000000e7e800     0x2e10 build/assets/Instrument_ctl.bin.o
                0x0000000000e7e800                _binary_assets_Instrument_ctl_bin_start
                0x0000000000e81610                _binary_assets_Instrument_ctl_bin_end
                0x0000000000e81610                Instrument_ctl_DATA_END = .
                0x0000000000e81610                Instrument_ctl_BSS_START = .
                0x0000000000e81610                Instrument_ctl_BSS_END = .
                0x0000000000e81610                Instrument_ctl_ROM_END = 0xe81610
                0x0000000001000000                __romPos = 0xe81610
                0x0000000001000000                __romPos = 0xe81610
                0x0000000001000000                . = __romPos
                0x0000000000e81610                Instrument_tbl_ROM_START = __romPos
                0x0000000000e81610                Instrument_tbl_VRAM = ADDR (.Instrument_tbl)

.Instrument_tbl
                0x0000000000e81610    0x6ca10
                0x0000000000e81610                Instrument_tbl_TEXT_START = .
                0x0000000000e81610                Instrument_tbl_TEXT_END = .
                0x0000000000e81610                Instrument_tbl_DATA_START = .
                0x0000000000e81610                Instrument_tbl_bin = .
 build/assets/Instrument_tbl.bin.o(.data)
 .data          0x0000000000e81610    0x6ca10 build/assets/Instrument_tbl.bin.o
                0x0000000000e81610                _binary_assets_Instrument_tbl_bin_start
                0x0000000000eee020                _binary_assets_Instrument_tbl_bin_end
                0x0000000000eee020                Instrument_tbl_DATA_END = .
                0x0000000000eee020                Instrument_tbl_BSS_START = .
                0x0000000000eee020                Instrument_tbl_BSS_END = .
                0x0000000000eee020                Instrument_tbl_ROM_END = 0xeee020
                0x0000000001000000                __romPos = 0xeee020
                0x0000000001000000                __romPos = 0xeee020
                0x0000000001000000                . = __romPos
                0x0000000000eee020                SE_ctl_ROM_START = __romPos
                0x0000000000eee020                SE_ctl_VRAM = ADDR (.SE_ctl)

.SE_ctl         0x0000000000eee020     0x1cc0
                0x0000000000eee020                SE_ctl_TEXT_START = .
                0x0000000000eee020                SE_ctl_TEXT_END = .
                0x0000000000eee020                SE_ctl_DATA_START = .
                0x0000000000eee020                SE_ctl_bin = .
 build/assets/SE_ctl.bin.o(.data)
 .data          0x0000000000eee020     0x1cc0 build/assets/SE_ctl.bin.o
                0x0000000000eee020                _binary_assets_SE_ctl_bin_start
                0x0000000000eefce0                _binary_assets_SE_ctl_bin_end
                0x0000000000eefce0                SE_ctl_DATA_END = .
                0x0000000000eefce0                SE_ctl_BSS_START = .
                0x0000000000eefce0                SE_ctl_BSS_END = .
                0x0000000000eefce0                SE_ctl_ROM_END = 0xeefce0
                0x0000000001000000                __romPos = 0xeefce0
                0x0000000001000000                __romPos = 0xeefce0
                0x0000000001000000                . = __romPos
                0x0000000000eefce0                SE_tbl_ROM_START = __romPos
                0x0000000000eefce0                SE_tbl_VRAM = ADDR (.SE_tbl)

.SE_tbl         0x0000000000eefce0    0xa46a0
                0x0000000000eefce0                SE_tbl_TEXT_START = .
                0x0000000000eefce0                SE_tbl_TEXT_END = .
                0x0000000000eefce0                SE_tbl_DATA_START = .
                0x0000000000eefce0                SE_tbl_bin = .
 build/assets/SE_tbl.bin.o(.data)
 .data          0x0000000000eefce0    0xa46a0 build/assets/SE_tbl.bin.o
                0x0000000000eefce0                _binary_assets_SE_tbl_bin_start
                0x0000000000f94380                _binary_assets_SE_tbl_bin_end
                0x0000000000f94380                SE_tbl_DATA_END = .
                0x0000000000f94380                SE_tbl_BSS_START = .
                0x0000000000f94380                SE_tbl_BSS_END = .
                0x0000000000f94380                SE_tbl_ROM_END = 0xf94380
                0x0000000001000000                __romPos = 0xf94380
                0x0000000001000000                __romPos = 0xf94380
                0x0000000001000000                . = __romPos
                0x0000000000f94380                trailer_ROM_START = __romPos
                0x0000000000f94380                trailer_VRAM = ADDR (.trailer)

.trailer        0x0000000000f94380    0x6bc80
                0x0000000000f94380                trailer_TEXT_START = .
                0x0000000000f94380                trailer_TEXT_END = .
                0x0000000000f94380                trailer_DATA_START = .
                0x0000000000f94380                trailer_bin = .
 build/assets/trailer.bin.o(.data)
 .data          0x0000000000f94380    0x6bc80 build/assets/trailer.bin.o
                0x0000000000f94380                _binary_assets_trailer_bin_start
                0x0000000001000000                _binary_assets_trailer_bin_end
                0x0000000001000000                trailer_DATA_END = .
                0x0000000001000000                trailer_BSS_START = .
                0x0000000001000000                trailer_BSS_END = .
                0x0000000001000000                trailer_ROM_END = 0x1000000
                0x0000000001000000                __romPos = 0x1000000

/DISCARD/
 *(*)
                0x000000008008cf78                gInvSlot = 0x8008cf78
                0x000000008008d00e                gInventoryOverflow = 0x8008d00e
                0x000000008007b2e4                gHUDState = 0x8007b2e4
                0x000000008007baa4                gNumFireSpirits = 0x8007baa4
                0x000000008007baa5                gNumEarthSpirits = 0x8007baa5
                0x000000008007baa6                gNumWaterSpirits = 0x8007baa6
                0x000000008007baa7                gNumWindSpirits = 0x8007baa7
                0x0000000080084eec                gCurrentMap = 0x80084eec
                0x0000000080084ef0                gCurrentSubmap = 0x80084ef0
                0x000000008008fcc1                gCurrBGM = 0x8008fcc1
                0x0000000080086dc0                gCameraFuncIndex = 0x80086dc0
                0x000000008007c990                NumberOfEnemies = 0x8007c990
                0x000000008007ba84                BrianCurrentHP = 0x8007ba84
                0x000000008007ba86                BrianMaxHP = 0x8007ba86
                0x000000008007ba88                BrianCurrentMP = 0x8007ba88
                0x000000008007ba8a                BrianMaxMP = 0x8007ba8a
                0x000000008007ba8c                BrianAgility = 0x8007ba8c
                0x000000008007ba8e                BrianDefense = 0x8007ba8e
                0x000000008007bac0                UNK_EscapeFlag = 0x8007bac0
                0x000000008008c58e                encounterCameraTimer = 0x8008c58e
                0x000000008007ba78                ptr_spiritPos = 0x8007ba78
                0x000000008007bb1e                BrianCurrAnim = 0x8007bb1e
                0x000000008007baf0                BrianModelScale = 0x8007baf0
                0x000000008007bacc                BrianPos = 0x8007bacc
                0x000000008008c764                VisableInvIndex = 0x8008c764
                0x000000008005fa00                MessageSliderPos = 0x8005fa00
                0x000000008005f010                BGMSliderPos = 0x8005f010
                0x000000008008fd04                UNK_MenuScrollCounter = 0x8008fd04
                0x000000008007baba                UNK_StaffAttack = 0x8007baba
                0x000000008008d00d                LastInvSlot = 0x8008d00d
                0x000000008007d1a0                CurrBossSpawned = 0x8007d1a0
                0x000000008004c2c0                TBL_HPGivenByBosses = 0x8004c2c0
                0x0000000080092aa8                ControllerInput = 0x80092aa8
                0x0000000080092874                buttonPressed = 0x80092874
                0x00000000803a91f0                ItemData = 0x803a91f0
                0x000000008008c760                InvScrollIndex = 0x8008c760
                0x0000000080053d04                BrianStartingData = 0x80053d04
                0x000000008007ba80                brianData = 0x8007ba80
                0x0000000080085370                LastExitID = 0x80085370
                0x000000008007b2e0                GameMode = 0x8007b2e0
                0x000000008007b2e8                cutsceneNum = 0x8007b2e8
                0x00000000800873dc                DamageNumberTimer = 0x800873dc
                0x000000008005f9b0                BaseMessageSpeed = 0x8005f9b0
                0x000000008004d748                prevSeed = 0x8004d748
                0x000000008007bac8                ptr_BrianData = 0x8007bac8
                0x0000000080084ee4                nextMap = 0x80084ee4
                0x0000000080084ee8                nextSubmap = 0x80084ee8
                0x000000008004d740                binTbl = 0x8004d740
                0x000000008007c998                EnemyData = 0x8007c998
                0x000000008007cac0                Enemy2Struct = 0x8007cac0
                0x0000000080086ed8                cameraZoomMode = 0x80086ed8
                0x000000008007b2fc                DLPtr = 0x8007b2fc
                0x000000008007ba40                brianXPosToLoad = 0x8007ba40
                0x000000008007ba44                brianYPosToLoad = 0x8007ba44
                0x000000008007ba48                brianZPosToLoad = 0x8007ba48
                0x000000008007babe                brianAnimationOverride_UNSET = 0x8007babe
                0x000000008008fd2a                UNK_SelectedSaveSlot = 0x8008fd2a
                0x00000000800859e0                CurrentDay = 0x800859e0
                0x0000000080084f04                UNK_CurrentMapTemp2 = 0x80084f04
                0x0000000080053b00                TBL_MapBGMs = 0x80053b00
                0x00000000a4040010                SP_STATUS_REG = 0xa4040010
                0x000000008008fd03                UNK_Not_Read_3 = 0x8008fd03
                0x00000000a4600010                PI_STATUS_REG = 0xa4600010
                0x00000000a4600004                PI_CART_ADDR_REG = 0xa4600004
                0x00000000a460000c                PI_WR_LEN_REG = 0xa460000c
                0x00000000a4600008                PI_RD_LEN_REG = 0xa4600008
                0x0000000080071f10                __libm_qnan_f = 0x80071f10
                0x0000000080071ab0                __osRcpImTable = 0x80071ab0
                0x00000000a4040004                SP_DRAM_ADDR_REG = 0xa4040004
                0x00000000a404000c                SP_WR_LEN_REG = 0xa404000c
                0x00000000a4040008                SP_RD_LEN_REG = 0xa4040008
                0x000000008008c570                UNK_CurrentBoss = 0x8008c570
                0x0000000080000300                osTvType = 0x80000300
                0x000000008000030c                osResetType = 0x8000030c
                0x000000008000031c                osAppNMIBuffer = 0x8000031c
                0x0000000080095630                __osTimerCounter = 0x80095630
                0x00000000800956a0                __osThreadSave = 0x800956a0
                0x000000008009562c                __osViIntrCount = 0x8009562c
                0x0000000080095628                __osBaseCounter = 0x80095628
                0x0000000080095624                __osCurrentTime = 0x80095624
                0x00000000800955e8                __osSiAccessQueue = 0x800955e8
                0x00000000800955d4                __osDiskHandle = 0x800955d4
                0x0000000080095491                __osMaxControllers = 0x80095491
                0x000000008007bb20                BrianAnimFrameCounter = 0x8007bb20
                0x000000008007baa8                HPXPPercent = 0x8007baa8
                0x000000008007baaa                MPXPPercent = 0x8007baaa
                0x000000008007baac                AgilityXPPercent = 0x8007baac
                0x000000008007baae                DefenseXPPercent = 0x8007baae
                0x0000000080000308                osRomBase = 0x80000308
                0x0000000080070a00                __osRunningThread = 0x80070a00
                0x00000000800709f8                __osRunQueue = 0x800709f8
                0x0000000080070a84                __osViNext = 0x80070a84
                0x0000000080070a80                __osViCurr = 0x80070a80
                0x0000000080070a90                __osTimerList = 0x80070a90
                0x000000008006f410                __OSGlobalIntMask = 0x8006f410
                0x0000000080093f20                __osEventStateTab = 0x80093f20
                0x0000000080095660                __osPfsPifRam = 0x80095660
                0x0000000080095490                __osContLastCmd = 0x80095490
                0x0000000080095450                __osContPifRam = 0x80095450
                0x00000000800954d0                __osEepromTimerMsg = 0x800954d0
                0x00000000800709f0                __osThreadTail = 0x800709f0
                0x000000008003ca60                __osExceptionPreamble = 0x8003ca60
                0x000000008006f400                osClockRate = 0x8006f400
                0x000000008006f404                osClockRateLo = 0x8006f404
                0x000000008006f408                osViClock = 0x8006f408
                0x000000008006f420                __osPiDevMgr = 0x8006f420
                0x000000008006f440                __osCurrentHandle = 0x8006f440
                0x0000000080070dd0                osViModePalLan1 = 0x80070dd0
                0x0000000080070e20                osViModeMpalLan1 = 0x80070e20
                0x0000000080070e70                osViModeNtscLan1 = 0x80070e70
                0x0000000080070a10                __osSiAccessQueueEnabled = 0x80070a10
                0x000000008006f43c                __osPiTable = 0x8006f43c
                0x00000000800954e0                CartRomHandle = 0x800954e0
                0x00000000800954e4                CartRomHandle4 = 0x800954e4
                0x00000000800954ec                CartRomHandle_baseAddress = 0x800954ec
                0x00000000800954e5                CartRomHandle_latency = 0x800954e5
                0x00000000800954e8                CartRomHandle_pulse = 0x800954e8
                0x00000000800954e6                CartRomHandle_pageSize = 0x800954e6
                0x00000000800954e9                CartRomHandle_domain = 0x800954e9
                0x00000000800954f0                CartRomHandle_speed = 0x800954f0
                0x0000000080070ed4                uppercaseDigs = 0x80070ed4
                0x0000000080070ec0                lowercaseDigs = 0x80070ec0
                0x00000000800709c0                __osContinitialized = 0x800709c0
                0x0000000080095430                _motorstartbuf = 0x80095430
                0x0000000080095410                _motorstopbuf = 0x80095410
                0x00000000800709b0                __osMotorinitialized = 0x800709b0
                0x00000000800709d0                __osHwIntTable = 0x800709d0
                0x00000000800709fc                osActiveQueue = 0x800709fc
                0x0000000080070990                alGlobals = 0x80070990
                0x000000008006f40c                osShutdown = 0x8006f40c
                0x000000008008fcc2                BGMPlayFlag = 0x8008fcc2
                0x000000008007babc                ActionTimer = 0x8007babc
                0x00000000800880a8                BattleFenceToggle = 0x800880a8
                0x000000008008c592                BattleState = 0x8008c592
                0x000000008007bae4                BrianXSpeed = 0x8007bae4
                0x000000008007ba68                InBattleXP = 0x8007ba68
                0x000000008007ba90                CombatXP = 0x8007ba90
                0x000000008007bab0                HPLvl = 0x8007bab0
                0x000000008007bab1                MPLvl = 0x8007bab1
                0x000000008007bab2                AgilLvl = 0x8007bab2
                0x000000008007bab3                DefLvl = 0x8007bab3
                0x000000008007bab4                Combat_ele_lvl = 0x8007bab4
                0x0000000080092876                pressedButton = 0x80092876
                0x000000008007ba60                saveDataMap = 0x8007ba60
                0x000000008007ba62                saveDataSubmap = 0x8007ba62
                0x000000008008fd0c                pause_and_save_screen_state_flags = 0x8008fd0c
                0x000000008008fd20                flags_DAT_8008fd20 = 0x8008fd20
                0x0000000080086a00                NumSpiritsOnMap = 0x80086a00
                0x0000000080086a08                SpritPos = 0x80086a08
                0x000000008007bc2c                currHealthStateAnim = 0x8007bc2c
                0x000000008007c570                CurrTextBoxMessage = 0x8007c570
                0x000000008007c970                localNPC_Names = 0x8007c970
                0x0000000080086dd4                CameraZoom = 0x80086dd4
                0x0000000080086dd0                CameraTilt = 0x80086dd0
                0x0000000080086dd8                CameraXPos = 0x80086dd8
                0x0000000080086ddc                CameraYPos = 0x80086ddc
                0x0000000080095190                viEventQueue = 0x80095190
                0x00000000800951a8                viEventBuf = 0x800951a8
                0x00000000800951c0                viRetraceMsg_hdr_type = 0x800951c0
                0x0000000080070170                __osViDevMgr_active = 0x80070170
                0x00000000800951d8                viCounterMsg_hdr_type = 0x800951d8
                0x0000000080093fe0                viThread = 0x80093fe0
                0x00000000a4500004                AI_LEN_REG = 0xa4500004
                0x00000000800709a0                hdwrBugFlag = 0x800709a0
                0x00000000800954b8                __osEepromTimerQ = 0x800954b8
                0x0000000080093f00                piEventQueue = 0x80093f00
                0x0000000080093f18                piEventBuf = 0x80093f18
                0x000000008006f428                __osPiDevMgr_cmdQueue = 0x8006f428
                0x0000000080092d50                piThread = 0x80092d50
                0x0000000080071b30                dtor = 0x80071b30
                0x0000000080070190                sintable = 0x80070190
                0x0000000080071b68                poly = 0x80071b68
                0x00000000a5000508                PI_STATUS_REG_a5000508 = 0xa5000508
                0x00000000800955e0                siAccessBuf = 0x800955e0
                0x00000000a4800018                SI_STATUS_REG = 0xa4800018
                0x00000000a4800004                SI_PIF_ADDR_RD64B_REG = 0xa4800004
                0x00000000a4800010                SI_PIF_ADDR_WR64B_REG = 0xa4800010
                0x0000000080070a20                vi = 0x80070a20
                0x00000000a4400010                VI_CURRENT_REG = 0xa4400010
                0x00000000800723b0                CONVERT = 0x800723b0
                0x0000000080399ab0                HUD_and_Menu_Pal = 0x80399ab0
                0x00000000803a6f70                virtBattleIcons = 0x803a6f70
                0x00000000803232a0                virt_TEX_Alphabet = 0x803232a0
                0x000000008007b320                messageQueue = 0x8007b320
                0x000000008007b358                ptr_ThreadData = 0x8007b358
                0x000000008004c230                ptr_IMPORTANT_FUNCS = 0x8004c230
                0x0000000080206000                virt_BrianData = 0x80206000
                0x000000008007bad0                BrianYPos = 0x8007bad0
                0x000000008007bad4                BrianZPos = 0x8007bad4
                0x00000000a4500010                AI_DACRATE_REG = 0xa4500010
                0x00000000a4500014                AI_BITRATE_REG = 0xa4500014
                0x00000000a4500008                AI_CONTROL_REG = 0xa4500008
                0x0000000080071c00                AL_1000000_0 = 0x80071c00
                0x00000000800c0000                virt_SpellData = 0x800c0000
                0x0000000080100000                virt_CommonData_Title_and_credits = 0x80100000
                0x000000008007ba70                itemToReceive = 0x8007ba70
                0x000000008007bbf0                BrianShadowXPos = 0x8007bbf0
                0x0000000080054828                DLG_GrandAbbottOpeningSpeech = 0x80054828
                0x0000000080054c04                DLG_MammonHasBeenDefeated = 0x80054c04
                0x000000008007bad8                BrianXRot = 0x8007bad8
                0x000000008007bae0                BrianZRot = 0x8007bae0
                0x000000008007baec                BrianZSpeed = 0x8007baec
                0x000000008007badc                BrianYRot = 0x8007badc
                0x000000008007baf8                BrianShadowXRot = 0x8007baf8
                0x000000008007bafc                BrianShadowYRot = 0x8007bafc
                0x000000008007bb00                BrianShadowZRot = 0x8007bb00
                0x000000008007baf4                BrianShadowScale = 0x8007baf4
                0x00000000803aaab4                MammonDeathText = 0x803aaab4
                0x00000000a450000c                AI_STATUS_REG = 0xa450000c
                0x0000000080095640                siAccessBuf_80095640 = 0x80095640
                0x0000000080092872                JoystickY = 0x80092872
                0x0000000080092871                JoystickX = 0x80092871
                0x0000000080331ab0                DRAMHeapStart = 0x80331ab0
                0x00000000800862e0                someMapPtr = 0x800862e0
                0x00000000800869a0                numChestsToDraw = 0x800869a0
                0x000000008004c470                tbl_mapChestData = 0x8004c470
                0x00000000800712c0                chestSize = 0x800712c0
                0x0000000080092878                ButtonCompliment = 0x80092878
                0x0000000080085368                temp_CurrMap = 0x80085368
                0x000000008007bb30                brianDataPtr = 0x8007bb30
                0x000000008007ba74                npcNum = 0x8007ba74
                0x000000008007bab8                brianAction = 0x8007bab8
                0x000000008006ac00                tbl_saveLocationNames = 0x8006ac00
                0x0000000080301000                gfxData = 0x80301000
                0x000000008007b2f4                gfxDataBankSwitch = 0x8007b2f4
                0x0000000080092a88                contInitBitpattern = 0x80092a88
                0x0000000080092870                controller_no = 0x80092870
                0x000000008008fd24                pfsError = 0x8008fd24
                0x000000008008fd22                pfsErrMsg = 0x8008fd22
                0x000000008008d070                messageBuffer = 0x8008d070
                0x0000000080096850                virt_spiritData = 0x80096850
                0x00000000800859d0                currentTime = 0x800859d0
                0x00000000800859d4                dayLength = 0x800859d4
                0x00000000800859d8                tempTime = 0x800859d8
                0x00000000800859dc                tempDayLength = 0x800859dc
                0x000000008007ba4c                sideOfDoorEnteredFlag = 0x8007ba4c
                0x000000008007b2ec                transitionFadeTimer = 0x8007b2ec
                0x000000008005faa0                someDisplayList = 0x8005faa0
                0x0000000080085374                exitType = 0x80085374
                0x000000008004c290                EnemyBattleStateFuncs = 0x8004c290
                0x000000008007ba64                LastExit = 0x8007ba64
                0x000000008007b2f0                transitionFadeType = 0x8007b2f0
                0x000000008007b344                TitleScreenOption = 0x8007b344
                0x0000000080085b68                someLightR = 0x80085b68
                0x0000000080085b6c                someLightG = 0x80085b6c
                0x0000000080085b70                someLightB = 0x80085b70
                0x0000000080085b74                groundLightR = 0x80085b74
                0x0000000080085b78                groundLightG = 0x80085b78
                0x0000000080085b80                specular_LightsR = 0x80085b80
                0x0000000080085b88                specular_LightsB = 0x80085b88
                0x0000000080085b90                FogG = 0x80085b90
                0x00000000800869d8                collectedChestsBitfield = 0x800869d8
                0x000000008005fa04                textSomething = 0x8005fa04
                0x00000000803aac20                virt_inventoryPalettes = 0x803aac20
                0x000000008030e150                gfxData2 = 0x8030e150
                0x000000008007bcf0                npcPtrs = 0x8007bcf0
                0x000000008007bd30                npcData = 0x8007bd30
                0x000000008007d1cc                bossXPos = 0x8007d1cc
                0x000000008007d1d4                bossZPos = 0x8007d1d4
                0x000000008007b350                spiritData = 0x8007b350
                0x00000000800820d8                virt_somePalette = 0x800820d8
                0x00000000800826d8                virt_somePalette2 = 0x800826d8
                0x0000000080084ee0                mapFlags = 0x80084ee0
                0x0000000080092d18                pfsNumFreeBlocks = 0x80092d18
                0x0000000080092d24                pfsMessageQueue = 0x80092d24
                0x0000000080092d2c                pfsMsg = 0x80092d2c
                0x0000000080084f18                ptrMapData = 0x80084f18
                0x000000008004c510                tbl_spiritLocData = 0x8004c510
                0x0000000080086ae8                tbl_spiritGetFlags = 0x80086ae8
                0x00000000800903b8                pfsSpiritGetFlags = 0x800903b8
                0x000000008004c280                text_Yes = 0x8004c280
                0x000000008004c288                text_No = 0x8004c288
                0x00000000800905e0                textboxState = 0x800905e0
                0x000000008008f978                MIDISeqConfig = 0x8008f978
                0x0000000080070af0                SMALLROOM_PARAMS = 0x80070af0
                0x0000000080070b58                BIGROOM_PARAMS = 0x80070b58
                0x0000000080070be0                ECHO_PARAMS = 0x80070be0
                0x0000000080070c08                CHORUS_PARAMS = 0x80070c08
                0x0000000080070c30                FLANGE_PARAMS = 0x80070c30
                0x0000000080070c58                NULL_PARAMS = 0x80070c58
                0x0000000080092d40                __osFinalrom = 0x80092d40
                0x000000008008fcc0                tempCurrBGM = 0x8008fcc0
                0x000000008008f994                seqpState = 0x8008f994
                0x000000008006fdb0                PAL_VI_Mode = 0x8006fdb0
                0x000000008006f4f0                NTSC_VI_Mode = 0x8006f4f0
                0x000000008007bb2e                cameraMode = 0x8007bb2e
                0x000000008004cc98                cameraModeTable = 0x8004cc98
                0x0000000080086dc8                camBehindBrianSomething = 0x80086dc8
                0x000000008008c59a                tempNumEnemies = 0x8008c59a
                0x000000008008c598                currTurnEnemyNum = 0x8008c598
                0x0000000080086f18                currSpellData = 0x80086f18
                0x0000000080084ef4                tempNextMap = 0x80084ef4
                0x000000008010fe00                virt_townData = 0x8010fe00
                0x0000000080086e88                someTransformMtx = 0x80086e88
                0x0000000080085bd0                someShadowX = 0x80085bd0
                0x000000008007bbd0                itemGottenOrUsedID = 0x8007bbd0
                0x0000000080331a30                virt_TextPalettes = 0x80331a30
                0x000000008004c270                tempBrianAnim = 0x8004c270
                0x00000000800905c0                isTalking = 0x800905c0
                0x000000008008c430                brianBattleFenceZpos = 0x8008c430
                0x000000008008c5a4                brianBattleFenceXpos = 0x8008c5a4
                0x000000008008cf79                invSlot2 = 0x8008cf79
                0x000000008008d024                screenDimTimer = 0x8008d024
                0x000000008008fcc4                BGMStartDelay = 0x8008fcc4
                0x0000000080084f08                unk_CurrentSubmapTemp2 = 0x80084f08
                0x0000000080084f0c                unk_lastExitTemp2 = 0x80084f0c
                0x0000000080084f10                mapFlagAllowBattles = 0x80084f10
                0x000000008008d020                screenDimState = 0x8008d020
                0x000000008008c664                eleHudSlide = 0x8008c664
                0x000000008008c660                HPMPHudSlide = 0x8008c660
                0x000000008004d490                ptr_someItemFuncs = 0x8004d490
                0x000000008008d030                SkyboxData = 0x8008d030
                0x000000008007bce4                numNPCsToRender = 0x8007bce4
                0x0000000080086edc                tbl_CameraZoomValues = 0x80086edc
                0x0000000080086f1c                spellAnimTimer = 0x80086f1c
                0x000000008004d2b8                timer_HUDDisappear = 0x8004d2b8
                0x000000008004d2bc                hudSlideMult = 0x8004d2bc
                0x000000008004d2b4                HUDToggle = 0x8004d2b4
                0x00000000801e0000                virt_shipData = 0x801e0000
                0x000000008020e6f0                vram_NPCs = 0x8020e6f0
                0x0000000080088178                brianBattleFenceVis = 0x80088178
                0x0000000080087208                numSmokeToRender = 0x80087208
                0x0000000080053d00                ptr_PlayerAnimData = 0x80053d00
                0x000000008007bb1c                BrianAnimBank = 0x8007bb1c
                0x0000000080054160                tbl_MonsterFileBounds = 0x80054160
                0x000000008008fd2b                saveMenuStickHeldTmr = 0x8008fd2b
                0x0000000080086e0c                camDistFromBrian = 0x80086e0c
                0x0000000080087310                smokeData = 0x80087310
                0x000000008007bb38                brianStatusEffect = 0x8007bb38
                0x0000000080095565                LeoDiskHandle_latency = 0x80095565
                0x0000000080095568                LeoDiskHandle_pulse = 0x80095568
                0x0000000080095566                LeoDiskHandle_pageSize = 0x80095566
                0x0000000080095567                LeoDiskHandle_relDuration = 0x80095567
                0x0000000080095569                LeoDiskHandle_domain = 0x80095569
                0x0000000080095570                LeoDiskHandle_speed = 0x80095570
                0x00000000a4600024                PI_BSD_DOM2_LAT_REG = 0xa4600024
                0x00000000a4600028                PI_BSD_DOM2_PWD_REG = 0xa4600028
                0x00000000a460002c                PI_BSD_DOM2_PGS_REG = 0xa460002c
                0x00000000a4600030                PI_BSD_DOM2_RLS_REG = 0xa4600030
                0x0000000080095560                LeoDiskHandle = 0x80095560
                0x0000000080095564                LeoDiskHandle_type = 0x80095564
                0x000000008009556c                LeoDiskHandle_baseAddress = 0x8009556c
                0x00000000800871dc                ptr_EnemyData = 0x800871dc
                0x000000008007bc20                currBossID = 0x8007bc20
                0x00000000803aabd8                tbl_bossNamePtrs = 0x803aabd8
                0x00000000803aabf8                tbl_bossSpeechPtrs = 0x803aabf8
                0x000000008007d130                bossZoomCamXPos = 0x8007d130
                0x000000008007bc24                bossSpeechDelay = 0x8007bc24
                0x0000000080084ed0                BoilHoleLavaFrameCtr = 0x80084ed0
                0x0000000080085380                skyboxState = 0x80085380
                0x000000008007bb2c                brianInteractingFlag = 0x8007bb2c
                0x0000000080070f50                brianSkidSpeed = 0x80070f50
                0x00000000803a9954                itemNamePtrs = 0x803a9954
                0x000000008007c574                itemGetMsg = 0x8007c574
                0x000000008004c460                msg_obtained = 0x8004c460
                0x0000000080084e60                doorAnimData = 0x80084e60
                0x000000008007d0a8                tbl_MonsterModelPtrs = 0x8007d0a8
                0x000000008007d19c                bossSpawnData = 0x8007d19c
                0x00000000803a9a90                tbl_bossRomOffsets = 0x803a9a90
                0x00000000802a7bc0                vram_bossFile = 0x802a7bc0
                0x00000000803aa164                tbl_MonsterNames = 0x803aa164
                0x000000008004cd94                float_2_0f = 0x8004cd94
                0x000000008007ca0c                enemyModelID = 0x8007ca0c
                0x000000008008c594                timer_CameraEnemyAtkZoom = 0x8008c594
                0x0000000080088428                particleSomething = 0x80088428
                0x0000000080088420                numParticlesDrawn = 0x80088420
                0x00000000800873d0                ptr_targetTakingDamage = 0x800873d0
                0x00000000803a2960                battleStatusPalette = 0x803a2960
                0x00000000803a6f60                ptrMenuGraphics = 0x803a6f60
                0x000000008039d990                SoulSearch_and_EleMenu_Pal = 0x8039d990
                0x000000008008c630                enemyNametagDisplayed = 0x8008c630
                0x000000008008c658                hudXSomething = 0x8008c658
                0x000000008008c65c                hudYSomething = 0x8008c65c
                0x000000008005390c                playingSoundEffectTbl = 0x8005390c
                0x000000008005396c                soundEffectSlot = 0x8005396c
                0x00000000800539e4                tbl_SEPtrs = 0x800539e4
                0x000000008008f92c                ptr_CurrentSE = 0x8008f92c
                0x000000008007ba7c                ptrChestPos = 0x8007ba7c
                0x000000008008fd10                pauseMenuFrameCtr = 0x8008fd10
                0x0000000080064d58                PauseMenuBGPal = 0x80064d58
                0x00000000800711e0                Pi = 0x800711e0
                0x0000000080086ecc                FogAmount = 0x80086ecc
                0x00000000803a8b90                DL_NPCTalkBubbleAndPal = 0x803a8b90
                0x000000008007b2f8                DLToLoad = 0x8007b2f8
                0x0000000080093fa0                tp = 0x80093fa0
                0x000000008008d028                ptr_ScreenDimValue = 0x8008d028
                0x000000008004d544                inventoryScreenDimTbl = 0x8004d544
                0x000000008004d5ac                trans_fade_1_lightingTbl = 0x8004d5ac
                0x000000008004d674                trans_fade_2_lightingTbl = 0x8004d674
                0x000000008004d714                trans_fade_3_lightingTbl = 0x8004d714
                0x000000008007bca0                battleAgilXPProgress = 0x8007bca0
                0x0000000080072e90                D_80072E90 = 0x80072e90
                0x0000000080000450                D_80000450 = 0x80000450
                0x0000000080074e90                D_80074E90 = 0x80074e90
                0x00000000800761f0                D_800761F0 = 0x800761f0
                0x00000000800781f0                D_800781F0 = 0x800781f0
                0x0000000080078208                D_80078208 = 0x80078208
                0x0000000080075040                D_80075040 = 0x80075040
                0x00000000800792d0                D_800792D0 = 0x800792d0
                0x000000008007a2d0                D_8007A2D0 = 0x8007a2d0
                0x000000008007b2d0                D_8007B2D0 = 0x8007b2d0
                0x000000008007b338                D_8007B338 = 0x8007b338
                0x0000000080092880                D_80092880 = 0x80092880
                0x000000008007b3cc                D_8007B3CC = 0x8007b3cc
                0x000000008007b9e8                D_8007B9E8 = 0x8007b9e8
                0x000000008007ba00                D_8007BA00 = 0x8007ba00
                0x000000008007b9e0                D_8007B9E0 = 0x8007b9e0
                0x000000008007b9d8                D_8007B9D8 = 0x8007b9d8
                0x0000000080070ef0                D_80070EF0 = 0x80070ef0
                0x0000000080084ef8                D_80084EF8 = 0x80084ef8
                0x0000000080084f14                D_80084F14 = 0x80084f14
                0x0000000080086e44                D_80086E44 = 0x80086e44
                0x00000000800859e2                D_800859E2 = 0x800859e2
                0x0000000080070f04                D_80070F04 = 0x80070f04
                0x000000008007b345                D_8007B345 = 0x8007b345
                0x00000000803b5000                D_803B5000 = 0x803b5000
                0x0000000080309000                D_80309000 = 0x80309000
                0x00000000803da800                D_803DA800 = 0x803da800
                0x0000000080049ef0                D_80049EF0 = 0x80049ef0
                0x0000000080049fc0                D_80049FC0 = 0x80049fc0
                0x00000000800723d0                D_800723D0 = 0x800723d0
                0x00000000802da800                D_802DA800 = 0x802da800
                0x000000008007b300                D_8007B300 = 0x8007b300
                0x000000008007b304                D_8007B304 = 0x8007b304
                0x000000008007b308                D_8007B308 = 0x8007b308
                0x0000000080084f12                D_80084F12 = 0x80084f12
                0x000000008007b340                D_8007B340 = 0x8007b340
                0x000000008007bc08                D_8007BC08 = 0x8007bc08
                0x000000008006ac60                D_8006AC60 = 0x8006ac60
                0x000000008007b34c                D_8007B34C = 0x8007b34c
                0x000000008004c210                D_8004C210 = 0x8004c210
                0x000000008007b348                D_8007B348 = 0x8007b348
                0x000000008007b33c                D_8007B33C = 0x8007b33c
                0x00000000800859e8                D_800859E8 = 0x800859e8
                0x000000008007b2f2                D_8007B2F2 = 0x8007b2f2
                0x0000000080087200                D_80087200 = 0x80087200
                0x000000008004d570                D_8004D570 = 0x8004d570
                0x000000008004d5f8                D_8004D5F8 = 0x8004d5f8
                0x000000008004d698                D_8004D698 = 0x8004d698
                0x000000008007ba28                D_8007BA28 = 0x8007ba28
                0x000000008007ba20                D_8007BA20 = 0x8007ba20
                0x000000008007ba24                D_8007BA24 = 0x8007ba24
                0x000000008007ba30                D_8007BA30 = 0x8007ba30
                0x000000008007ba38                D_8007BA38 = 0x8007ba38
                0x000000008008c640                D_8008C640 = 0x8008c640
                0x000000008008fd0e                D_8008FD0E = 0x8008fd0e
                0x000000008007bc14                D_8007BC14 = 0x8007bc14
                0x000000008007bc1c                D_8007BC1C = 0x8007bc1c
                0x000000008007bc10                D_8007BC10 = 0x8007bc10
                0x000000008007bc40                D_8007BC40 = 0x8007bc40
                0x000000008007bc30                D_8007BC30 = 0x8007bc30
                0x000000008007bbe0                D_8007BBE0 = 0x8007bbe0
                0x000000008007ba50                D_8007BA50 = 0x8007ba50
                0x0000000080084f24                D_80084F24 = 0x80084f24
                0x0000000080070f10                D_80070F10 = 0x80070f10
                0x000000008007bbec                D_8007BBEC = 0x8007bbec
                0x0000000080070f18                D_80070F18 = 0x80070f18
                0x0000000080070f1c                D_80070F1C = 0x80070f1c
                0x0000000080070f20                D_80070F20 = 0x80070f20
                0x0000000080070f28                D_80070F28 = 0x80070f28
                0x0000000080070f2c                D_80070F2C = 0x80070f2c
                0x000000008007bb34                D_8007BB34 = 0x8007bb34
                0x000000008007ba5c                D_8007BA5C = 0x8007ba5c
                0x000000008007bc28                D_8007BC28 = 0x8007bc28
                0x0000000080054158                D_80054158 = 0x80054158
                0x000000008007ba58                D_8007BA58 = 0x8007ba58
                0x000000008007ba54                D_8007BA54 = 0x8007ba54
                0x000000008008c644                D_8008C644 = 0x8008c644
                0x000000008007bc34                D_8007BC34 = 0x8007bc34
                0x0000000080070f30                D_80070F30 = 0x80070f30
                0x000000008004d530                D_8004D530 = 0x8004d530
                0x000000008007ba6c                D_8007BA6C = 0x8007ba6c
                0x000000008007bc0c                D_8007BC0C = 0x8007bc0c
                0x0000000080070f38                D_80070F38 = 0x80070f38
                0x000000008008c5b0                D_8008C5B0 = 0x8008c5b0
                0x000000008007bc44                D_8007BC44 = 0x8007bc44
                0x0000000080070f40                D_80070F40 = 0x80070f40
                0x000000008008c638                D_8008C638 = 0x8008c638
                0x000000008004ce30                D_8004CE30 = 0x8004ce30
                0x0000000080070f58                D_80070F58 = 0x80070f58
                0x00000000800905c4                D_800905C4 = 0x800905c4
                0x0000000080070f60                D_80070F60 = 0x80070f60
                0x0000000080070f68                D_80070F68 = 0x80070f68
                0x0000000080070f78                D_80070F78 = 0x80070f78
                0x0000000080070f80                D_80070F80 = 0x80070f80
                0x0000000080070f88                D_80070F88 = 0x80070f88
                0x0000000080070f98                D_80070F98 = 0x80070f98
                0x0000000080070fa0                D_80070FA0 = 0x80070fa0
                0x0000000080070fb0                D_80070FB0 = 0x80070fb0
                0x0000000080070fb8                D_80070FB8 = 0x80070fb8
                0x0000000080070fc0                D_80070FC0 = 0x80070fc0
                0x0000000080070fd0                D_80070FD0 = 0x80070fd0
                0x0000000080070fd8                D_80070FD8 = 0x80070fd8
                0x0000000080070fe0                D_80070FE0 = 0x80070fe0
                0x0000000080070fe8                D_80070FE8 = 0x80070fe8
                0x0000000080070ff8                D_80070FF8 = 0x80070ff8
                0x0000000080071000                D_80071000 = 0x80071000
                0x0000000080071008                D_80071008 = 0x80071008
                0x0000000080071018                D_80071018 = 0x80071018
                0x0000000080071030                D_80071030 = 0x80071030
                0x0000000080071040                D_80071040 = 0x80071040
                0x0000000080071048                D_80071048 = 0x80071048
                0x0000000080071058                D_80071058 = 0x80071058
                0x0000000080071068                D_80071068 = 0x80071068
                0x0000000080071070                D_80071070 = 0x80071070
                0x0000000080071078                D_80071078 = 0x80071078
                0x0000000080071088                D_80071088 = 0x80071088
                0x0000000080071090                D_80071090 = 0x80071090
                0x0000000080071098                D_80071098 = 0x80071098
                0x00000000800710a8                D_800710A8 = 0x800710a8
                0x00000000800710b0                D_800710B0 = 0x800710b0
                0x000000008008c59c                D_8008C59C = 0x8008c59c
                0x000000008008c5a0                D_8008C5A0 = 0x8008c5a0
                0x000000008008c434                D_8008C434 = 0x8008c434
                0x000000008007bce8                D_8007BCE8 = 0x8007bce8
                0x00000000800710c0                D_800710C0 = 0x800710c0
                0x000000008007d08c                D_8007D08C = 0x8007d08c
                0x000000008007d090                D_8007D090 = 0x8007d090
                0x0000000080084f38                D_80084F38 = 0x80084f38
                0x0000000080084f40                D_80084F40 = 0x80084f40
                0x00000000800710c8                D_800710C8 = 0x800710c8
                0x00000000800710d8                D_800710D8 = 0x800710d8
                0x00000000800710e0                D_800710E0 = 0x800710e0
                0x00000000800710f0                D_800710F0 = 0x800710f0
                0x0000000080053f58                D_80053F58 = 0x80053f58
                0x000000008007ca24                D_8007CA24 = 0x8007ca24
                0x00000000800c1b26                D_800C1B26 = 0x800c1b26
                0x000000008007bc18                D_8007BC18 = 0x8007bc18
                0x00000000800710f8                D_800710F8 = 0x800710f8
                0x0000000080071100                D_80071100 = 0x80071100
                0x0000000080053ecc                D_80053ECC = 0x80053ecc
                0x000000008007ba73                D_8007BA73 = 0x8007ba73
                0x0000000080084f1c                D_80084F1C = 0x80084f1c
                0x00000000800547f0                D_800547F0 = 0x800547f0
                0x000000008007bcb0                D_8007BCB0 = 0x8007bcb0
                0x000000008020c0d0                D_8020C0D0 = 0x8020c0d0
                0x00000000802a0000                D_802A0000 = 0x802a0000
                0x000000008007bcb4                D_8007BCB4 = 0x8007bcb4
                0x0000000080071110                D_80071110 = 0x80071110
                0x0000000080071118                D_80071118 = 0x80071118
                0x000000008007bcb8                D_8007BCB8 = 0x8007bcb8
                0x0000000080071120                D_80071120 = 0x80071120
                0x0000000080071124                D_80071124 = 0x80071124
                0x0000000080071128                D_80071128 = 0x80071128
                0x000000008007bcc8                D_8007BCC8 = 0x8007bcc8
                0x0000000080071130                D_80071130 = 0x80071130
                0x0000000080071140                D_80071140 = 0x80071140
                0x0000000080071148                D_80071148 = 0x80071148
                0x00000000800905c8                D_800905C8 = 0x800905c8
                0x000000008007d0bc                D_8007D0BC = 0x8007d0bc
                0x000000008007d0ac                D_8007D0AC = 0x8007d0ac
                0x0000000080071150                D_80071150 = 0x80071150
                0x000000008007d0e0                D_8007D0E0 = 0x8007d0e0
                0x000000008007d0b0                D_8007D0B0 = 0x8007d0b0
                0x000000008007d0d0                D_8007D0D0 = 0x8007d0d0
                0x000000008007d088                D_8007D088 = 0x8007d088
                0x000000008007d0d4                D_8007D0D4 = 0x8007d0d4
                0x0000000080071160                D_80071160 = 0x80071160
                0x0000000080071168                D_80071168 = 0x80071168
                0x0000000080071178                D_80071178 = 0x80071178
                0x0000000080071180                D_80071180 = 0x80071180
                0x0000000080071188                D_80071188 = 0x80071188
                0x000000008004c2a8                D_8004C2A8 = 0x8004c2a8
                0x0000000080071198                D_80071198 = 0x80071198
                0x000000008007c9bc                D_8007C9BC = 0x8007c9bc
                0x0000000080054690                D_80054690 = 0x80054690
                0x00000000800547d4                D_800547D4 = 0x800547d4
                0x00000000800711c0                D_800711C0 = 0x800711c0
                0x000000008007d0c4                D_8007D0C4 = 0x8007d0c4
                0x000000008007d0c0                D_8007D0C0 = 0x8007d0c0
                0x0000000080054640                D_80054640 = 0x80054640
                0x00000000800c1b90                D_800C1B90 = 0x800c1b90
                0x000000008007d0cc                D_8007D0CC = 0x8007d0cc
                0x000000008007d1a8                D_8007D1A8 = 0x8007d1a8
                0x000000008007d21e                D_8007D21E = 0x8007d21e
                0x000000008007d230                D_8007D230 = 0x8007d230
                0x000000008007d1d0                D_8007D1D0 = 0x8007d1d0
                0x000000008007d1fc                D_8007D1FC = 0x8007d1fc
                0x000000008007d200                D_8007D200 = 0x8007d200
                0x000000008007d1f4                D_8007D1F4 = 0x8007d1f4
                0x000000008007d1f8                D_8007D1F8 = 0x8007d1f8
                0x00000000803a9b8c                D_803A9B8C = 0x803a9b8c
                0x00000000803a9f20                D_803A9F20 = 0x803a9f20
                0x00000000800711d0                D_800711D0 = 0x800711d0
                0x00000000800711d8                D_800711D8 = 0x800711d8
                0x000000008007d110                D_8007D110 = 0x8007d110
                0x00000000803aa0a8                D_803AA0A8 = 0x803aa0a8
                0x00000000803a9bb0                D_803A9BB0 = 0x803a9bb0
                0x0000000080054f10                D_80054F10 = 0x80054f10
                0x0000000080084efc                D_80084EFC = 0x80084efc
                0x0000000080084f00                D_80084F00 = 0x80084f00
                0x00000000800558a0                D_800558A0 = 0x800558a0
                0x00000000800827a0                D_800827A0 = 0x800827a0
                0x00000000800827a2                D_800827A2 = 0x800827a2
                0x0000000080084f28                D_80084F28 = 0x80084f28
                0x0000000080084f20                D_80084F20 = 0x80084f20
                0x00000000800859e4                D_800859E4 = 0x800859e4
                0x0000000080084f2c                D_80084F2C = 0x80084f2c
                0x0000000080084f30                D_80084F30 = 0x80084f30
                0x000000008005efa8                D_8005EFA8 = 0x8005efa8
                0x000000008007d2d8                D_8007D2D8 = 0x8007d2d8
                0x0000000080084260                D_80084260 = 0x80084260
                0x0000000080082c28                D_80082C28 = 0x80082c28
                0x0000000080082c70                D_80082C70 = 0x80082c70
                0x0000000080082c80                D_80082C80 = 0x80082c80
                0x0000000080082958                D_80082958 = 0x80082958
                0x0000000080082c58                D_80082C58 = 0x80082c58
                0x000000008004c2f8                D_8004C2F8 = 0x8004c2f8
                0x0000000080082908                D_80082908 = 0x80082908
                0x0000000080084edc                D_80084EDC = 0x80084edc
                0x000000008007d2d4                D_8007D2D4 = 0x8007d2d4
                0x0000000080124e24                D_80124E24 = 0x80124e24
                0x0000000080124e22                D_80124E22 = 0x80124e22
                0x00000000800828d8                D_800828D8 = 0x800828d8
                0x00000000800828dc                D_800828DC = 0x800828dc
                0x00000000800828e0                D_800828E0 = 0x800828e0
                0x00000000800828e4                D_800828E4 = 0x800828e4
                0x00000000800828e8                D_800828E8 = 0x800828e8
                0x00000000800828ec                D_800828EC = 0x800828ec
                0x00000000800828f0                D_800828F0 = 0x800828f0
                0x0000000080083080                D_80083080 = 0x80083080
                0x00000000800828f4                D_800828F4 = 0x800828f4
                0x00000000800828f8                D_800828F8 = 0x800828f8
                0x0000000080083488                D_80083488 = 0x80083488
                0x00000000800828fc                D_800828FC = 0x800828fc
                0x0000000080083888                D_80083888 = 0x80083888
                0x0000000080082900                D_80082900 = 0x80082900
                0x0000000080083c90                D_80083C90 = 0x80083c90
                0x0000000080082904                D_80082904 = 0x80082904
                0x0000000080082910                D_80082910 = 0x80082910
                0x0000000080082c10                D_80082C10 = 0x80082c10
                0x0000000080084ed4                D_80084ED4 = 0x80084ed4
                0x0000000080084ed8                D_80084ED8 = 0x80084ed8
                0x00000000800558e8                D_800558E8 = 0x800558e8
                0x00000000800558ec                D_800558EC = 0x800558ec
                0x0000000080055a28                D_80055A28 = 0x80055a28
                0x0000000080055adc                D_80055ADC = 0x80055adc
                0x0000000080055af0                D_80055AF0 = 0x80055af0
                0x0000000080084f34                D_80084F34 = 0x80084f34
                0x000000008007b318                D_8007B318 = 0x8007b318
                0x000000008007b31a                D_8007B31A = 0x8007b31a
                0x0000000080082c48                D_80082C48 = 0x80082c48
                0x0000000080082c18                D_80082C18 = 0x80082c18
                0x00000000800566fc                D_800566FC = 0x800566fc
                0x000000008004c2d4                D_8004C2D4 = 0x8004c2d4
                0x000000008004c2e4                D_8004C2E4 = 0x8004c2e4
                0x00000000800711f8                D_800711F8 = 0x800711f8
                0x0000000080071200                D_80071200 = 0x80071200
                0x000000008004c2eb                D_8004C2EB = 0x8004c2eb
                0x000000008005efe8                D_8005EFE8 = 0x8005efe8
                0x000000008004c314                D_8004C314 = 0x8004c314
                0x000000008004c328                D_8004C328 = 0x8004c328
                0x000000008004c310                D_8004C310 = 0x8004c310
                0x000000008004c2d0                D_8004C2D0 = 0x8004c2d0
                0x000000008004c334                D_8004C334 = 0x8004c334
                0x000000008004c354                D_8004C354 = 0x8004c354
                0x000000008004c344                D_8004C344 = 0x8004c344
                0x0000000080085bb4                D_80085BB4 = 0x80085bb4
                0x0000000080085bb8                D_80085BB8 = 0x80085bb8
                0x000000008005efac                D_8005EFAC = 0x8005efac
                0x00000000800562e0                D_800562E0 = 0x800562e0
                0x0000000080056368                D_80056368 = 0x80056368
                0x0000000080071210                D_80071210 = 0x80071210
                0x0000000080071220                D_80071220 = 0x80071220
                0x0000000080086ec8                D_80086EC8 = 0x80086ec8
                0x000000008004c37c                D_8004C37C = 0x8004c37c
                0x000000008004c380                D_8004C380 = 0x8004c380
                0x000000008004c390                D_8004C390 = 0x8004c390
                0x000000008004c38c                D_8004C38C = 0x8004c38c
                0x000000008004c394                D_8004C394 = 0x8004c394
                0x000000008005cd58                D_8005CD58 = 0x8005cd58
                0x000000008004c364                D_8004C364 = 0x8004c364
                0x000000008004c374                D_8004C374 = 0x8004c374
                0x000000008004c3bc                D_8004C3BC = 0x8004c3bc
                0x000000008004c3a4                D_8004C3A4 = 0x8004c3a4
                0x000000008004c3c0                D_8004C3C0 = 0x8004c3c0
                0x000000008004c3d0                D_8004C3D0 = 0x8004c3d0
                0x000000008004c3cc                D_8004C3CC = 0x8004c3cc
                0x0000000080071238                D_80071238 = 0x80071238
                0x000000008007d2d0                D_8007D2D0 = 0x8007d2d0
                0x0000000080084098                D_80084098 = 0x80084098
                0x0000000080084180                D_80084180 = 0x80084180
                0x0000000080071240                D_80071240 = 0x80071240
                0x000000008005c87c                D_8005C87C = 0x8005c87c
                0x000000008005c90c                D_8005C90C = 0x8005c90c
                0x000000008004c3e4                D_8004C3E4 = 0x8004c3e4
                0x000000008004c3e8                D_8004C3E8 = 0x8004c3e8
                0x000000008004c3f8                D_8004C3F8 = 0x8004c3f8
                0x000000008004c3ec                D_8004C3EC = 0x8004c3ec
                0x0000000080083c88                D_80083C88 = 0x80083c88
                0x0000000080084090                D_80084090 = 0x80084090
                0x0000000080081cd8                D_80081CD8 = 0x80081cd8
                0x0000000080084178                D_80084178 = 0x80084178
                0x000000008004c3f0                D_8004C3F0 = 0x8004c3f0
                0x0000000080083480                D_80083480 = 0x80083480
                0x000000008004c428                D_8004C428 = 0x8004c428
                0x0000000080082868                D_80082868 = 0x80082868
                0x000000008008286a                D_8008286A = 0x8008286a
                0x0000000080082866                D_80082866 = 0x80082866
                0x0000000080085340                D_80085340 = 0x80085340
                0x0000000080071260                D_80071260 = 0x80071260
                0x0000000080071268                D_80071268 = 0x80071268
                0x0000000080071270                D_80071270 = 0x80071270
                0x0000000080071278                D_80071278 = 0x80071278
                0x0000000080085358                D_80085358 = 0x80085358
                0x0000000080071280                D_80071280 = 0x80071280
                0x0000000080071288                D_80071288 = 0x80071288
                0x0000000080071298                D_80071298 = 0x80071298
                0x00000000800712a0                D_800712A0 = 0x800712a0
                0x0000000080085350                D_80085350 = 0x80085350
                0x000000008008c634                D_8008C634 = 0x8008c634
                0x000000008004c454                D_8004C454 = 0x8004c454
                0x0000000080085384                D_80085384 = 0x80085384
                0x00000000800812d8                D_800812D8 = 0x800812d8
                0x000000008008538c                D_8008538C = 0x8008538c
                0x0000000080085388                D_80085388 = 0x80085388
                0x000000008004c430                D_8004C430 = 0x8004c430
                0x00000000800814d8                D_800814D8 = 0x800814d8
                0x0000000080085bc8                D_80085BC8 = 0x80085bc8
                0x0000000080085bcc                D_80085BCC = 0x80085bcc
                0x00000000800855e0                D_800855E0 = 0x800855e0
                0x0000000080085618                D_80085618 = 0x80085618
                0x0000000080085b98                D_80085B98 = 0x80085b98
                0x00000000800712b0                D_800712B0 = 0x800712b0
                0x00000000800855a0                D_800855A0 = 0x800855a0
                0x0000000080085390                D_80085390 = 0x80085390
                0x0000000080085394                D_80085394 = 0x80085394
                0x0000000080085398                D_80085398 = 0x80085398
                0x00000000800853a0                D_800853A0 = 0x800853a0
                0x0000000080085b38                D_80085B38 = 0x80085b38
                0x0000000080085a14                D_80085A14 = 0x80085a14
                0x0000000080085810                D_80085810 = 0x80085810
                0x0000000080085650                D_80085650 = 0x80085650
                0x0000000080085bb0                D_80085BB0 = 0x80085bb0
                0x0000000080085bbc                D_80085BBC = 0x80085bbc
                0x0000000080085bc0                D_80085BC0 = 0x80085bc0
                0x0000000080085bc4                D_80085BC4 = 0x80085bc4
                0x00000000800862d0                D_800862D0 = 0x800862d0
                0x00000000800869f8                D_800869F8 = 0x800869f8
                0x00000000800869b8                D_800869B8 = 0x800869b8
                0x000000008010fdc4                D_8010FDC4 = 0x8010fdc4
                0x00000000800712c8                D_800712C8 = 0x800712c8
                0x00000000800712d0                D_800712D0 = 0x800712d0
                0x00000000800712d8                D_800712D8 = 0x800712d8
                0x00000000800869a8                D_800869A8 = 0x800869a8
                0x0000000080086af8                D_80086AF8 = 0x80086af8
                0x0000000080086ac8                D_80086AC8 = 0x80086ac8
                0x000000008004cba8                D_8004CBA8 = 0x8004cba8
                0x000000008004c7a8                D_8004C7A8 = 0x8004c7a8
                0x000000008004cbc0                D_8004CBC0 = 0x8004cbc0
                0x000000008004cbb8                D_8004CBB8 = 0x8004cbb8
                0x00000000800712f8                D_800712F8 = 0x800712f8
                0x0000000080301098                D_80301098 = 0x80301098
                0x000000008030e1e8                D_8030E1E8 = 0x8030e1e8
                0x0000000080071310                D_80071310 = 0x80071310
                0x000000008004cbf0                D_8004CBF0 = 0x8004cbf0
                0x0000000080086b88                D_80086B88 = 0x80086b88
                0x0000000080086dc4                D_80086DC4 = 0x80086dc4
                0x0000000080086e40                D_80086E40 = 0x80086e40
                0x0000000080086e20                D_80086E20 = 0x80086e20
                0x0000000080086b90                D_80086B90 = 0x80086b90
                0x0000000080086e28                D_80086E28 = 0x80086e28
                0x0000000080086e10                D_80086E10 = 0x80086e10
                0x0000000080086e18                D_80086E18 = 0x80086e18
                0x0000000080071318                D_80071318 = 0x80071318
                0x0000000080086b94                D_80086B94 = 0x80086b94
                0x0000000080086dcc                D_80086DCC = 0x80086dcc
                0x0000000080086e14                D_80086E14 = 0x80086e14
                0x0000000080086de4                D_80086DE4 = 0x80086de4
                0x0000000080086dec                D_80086DEC = 0x80086dec
                0x0000000080086e1c                D_80086E1C = 0x80086e1c
                0x0000000080086de0                D_80086DE0 = 0x80086de0
                0x0000000080086df0                D_80086DF0 = 0x80086df0
                0x0000000080086df8                D_80086DF8 = 0x80086df8
                0x0000000080086e08                D_80086E08 = 0x80086e08
                0x0000000080086e04                D_80086E04 = 0x80086e04
                0x0000000080086dfc                D_80086DFC = 0x80086dfc
                0x0000000080071320                D_80071320 = 0x80071320
                0x0000000080086e30                D_80086E30 = 0x80086e30
                0x0000000080071324                D_80071324 = 0x80071324
                0x0000000080086e34                D_80086E34 = 0x80086e34
                0x0000000080071328                D_80071328 = 0x80071328
                0x0000000080086e3c                D_80086E3C = 0x80086e3c
                0x0000000080086c2c                D_80086C2C = 0x80086c2c
                0x0000000080086bbc                D_80086BBC = 0x80086bbc
                0x0000000080086ed0                D_80086ED0 = 0x80086ed0
                0x000000008007132c                D_8007132C = 0x8007132c
                0x0000000080071330                D_80071330 = 0x80071330
                0x0000000080071334                D_80071334 = 0x80071334
                0x0000000080071338                D_80071338 = 0x80071338
                0x0000000080086efc                D_80086EFC = 0x80086efc
                0x0000000080086f00                D_80086F00 = 0x80086f00
                0x0000000080086e48                D_80086E48 = 0x80086e48
                0x0000000080086c34                D_80086C34 = 0x80086c34
                0x0000000080086c30                D_80086C30 = 0x80086c30
                0x0000000080071340                D_80071340 = 0x80071340
                0x0000000080071348                D_80071348 = 0x80071348
                0x0000000080086ed4                D_80086ED4 = 0x80086ed4
                0x0000000080071350                D_80071350 = 0x80071350
                0x0000000080071358                D_80071358 = 0x80071358
                0x0000000080071368                D_80071368 = 0x80071368
                0x0000000080071370                D_80071370 = 0x80071370
                0x0000000080071378                D_80071378 = 0x80071378
                0x0000000080071380                D_80071380 = 0x80071380
                0x0000000080071388                D_80071388 = 0x80071388
                0x0000000080071398                D_80071398 = 0x80071398
                0x0000000080086ba0                D_80086BA0 = 0x80086ba0
                0x00000000800713a0                D_800713A0 = 0x800713a0
                0x0000000080086b00                D_80086B00 = 0x80086b00
                0x00000000800713b0                D_800713B0 = 0x800713b0
                0x00000000800713b8                D_800713B8 = 0x800713b8
                0x00000000800713c0                D_800713C0 = 0x800713c0
                0x00000000800713d0                D_800713D0 = 0x800713d0
                0x00000000800713d8                D_800713D8 = 0x800713d8
                0x00000000800713e0                D_800713E0 = 0x800713e0
                0x00000000800713e8                D_800713E8 = 0x800713e8
                0x00000000800713f0                D_800713F0 = 0x800713f0
                0x0000000080086ee0                D_80086EE0 = 0x80086ee0
                0x0000000080071400                D_80071400 = 0x80071400
                0x0000000080071408                D_80071408 = 0x80071408
                0x0000000080071418                D_80071418 = 0x80071418
                0x000000008004ccb0                D_8004CCB0 = 0x8004ccb0
                0x0000000080086b80                D_80086B80 = 0x80086b80
                0x0000000080086bc0                D_80086BC0 = 0x80086bc0
                0x0000000080071420                D_80071420 = 0x80071420
                0x0000000080071428                D_80071428 = 0x80071428
                0x000000008007142c                D_8007142C = 0x8007142c
                0x0000000080071430                D_80071430 = 0x80071430
                0x0000000080071438                D_80071438 = 0x80071438
                0x0000000080071440                D_80071440 = 0x80071440
                0x0000000080071448                D_80071448 = 0x80071448
                0x0000000080071450                D_80071450 = 0x80071450
                0x0000000080071460                D_80071460 = 0x80071460
                0x0000000080071468                D_80071468 = 0x80071468
                0x0000000080071470                D_80071470 = 0x80071470
                0x0000000080071478                D_80071478 = 0x80071478
                0x0000000080071480                D_80071480 = 0x80071480
                0x0000000080071488                D_80071488 = 0x80071488
                0x0000000080087170                D_80087170 = 0x80087170
                0x0000000080087188                D_80087188 = 0x80087188
                0x00000000800871a0                D_800871A0 = 0x800871a0
                0x00000000800871b8                D_800871B8 = 0x800871b8
                0x0000000080086f10                D_80086F10 = 0x80086f10
                0x00000000800c1b14                D_800C1B14 = 0x800c1b14
                0x00000000800ebe38                D_800EBE38 = 0x800ebe38
                0x0000000080086f14                D_80086F14 = 0x80086f14
                0x00000000800c1b30                D_800C1B30 = 0x800c1b30
                0x00000000800871d0                D_800871D0 = 0x800871d0
                0x000000008004ccf8                D_8004CCF8 = 0x8004ccf8
                0x000000008004ccd0                D_8004CCD0 = 0x8004ccd0
                0x00000000800871e0                D_800871E0 = 0x800871e0
                0x00000000800871e4                D_800871E4 = 0x800871e4
                0x00000000800871d4                D_800871D4 = 0x800871d4
                0x0000000080071490                D_80071490 = 0x80071490
                0x000000008004cd04                D_8004CD04 = 0x8004cd04
                0x000000008004cd44                D_8004CD44 = 0x8004cd44
                0x00000000800ebef8                D_800EBEF8 = 0x800ebef8
                0x000000008004cda8                D_8004CDA8 = 0x8004cda8
                0x000000008004cdbc                D_8004CDBC = 0x8004cdbc
                0x0000000080071498                D_80071498 = 0x80071498
                0x00000000800714a0                D_800714A0 = 0x800714a0
                0x00000000800714a8                D_800714A8 = 0x800714a8
                0x00000000800714b0                D_800714B0 = 0x800714b0
                0x00000000800714b8                D_800714B8 = 0x800714b8
                0x00000000800714c0                D_800714C0 = 0x800714c0
                0x00000000800714c8                D_800714C8 = 0x800714c8
                0x000000008004cdd0                D_8004CDD0 = 0x8004cdd0
                0x000000008007c9b8                D_8007C9B8 = 0x8007c9b8
                0x00000000800714d0                D_800714D0 = 0x800714d0
                0x00000000800714d8                D_800714D8 = 0x800714d8
                0x00000000800714e0                D_800714E0 = 0x800714e0
                0x00000000800714e8                D_800714E8 = 0x800714e8
                0x00000000800c38f4                D_800C38F4 = 0x800c38f4
                0x00000000800714f0                D_800714F0 = 0x800714f0
                0x00000000800714f8                D_800714F8 = 0x800714f8
                0x0000000080071500                D_80071500 = 0x80071500
                0x0000000080071508                D_80071508 = 0x80071508
                0x0000000080071510                D_80071510 = 0x80071510
                0x0000000080071518                D_80071518 = 0x80071518
                0x0000000080071520                D_80071520 = 0x80071520
                0x000000008004cd74                D_8004CD74 = 0x8004cd74
                0x000000008007bbc4                D_8007BBC4 = 0x8007bbc4
                0x000000008007cab4                D_8007CAB4 = 0x8007cab4
                0x000000008007cbdc                D_8007CBDC = 0x8007cbdc
                0x000000008004cde4                D_8004CDE4 = 0x8004cde4
                0x000000008004cdf0                D_8004CDF0 = 0x8004cdf0
                0x000000008004cdfc                D_8004CDFC = 0x8004cdfc
                0x0000000080087210                D_80087210 = 0x80087210
                0x0000000080071530                D_80071530 = 0x80071530
                0x0000000080071534                D_80071534 = 0x80071534
                0x0000000080071538                D_80071538 = 0x80071538
                0x0000000080087250                D_80087250 = 0x80087250
                0x0000000080071548                D_80071548 = 0x80071548
                0x0000000080071550                D_80071550 = 0x80071550
                0x0000000080071560                D_80071560 = 0x80071560
                0x0000000080071568                D_80071568 = 0x80071568
                0x0000000080071570                D_80071570 = 0x80071570
                0x000000008004ceac                D_8004CEAC = 0x8004ceac
                0x000000008004cec4                D_8004CEC4 = 0x8004cec4
                0x000000008004ced8                D_8004CED8 = 0x8004ced8
                0x0000000080071578                D_80071578 = 0x80071578
                0x000000008004cf34                D_8004CF34 = 0x8004cf34
                0x000000008004cf1c                D_8004CF1C = 0x8004cf1c
                0x00000000800873ec                D_800873EC = 0x800873ec
                0x0000000080087408                D_80087408 = 0x80087408
                0x00000000800874e8                D_800874E8 = 0x800874e8
                0x00000000800c47a0                D_800C47A0 = 0x800c47a0
                0x000000008039cf90                D_8039CF90 = 0x8039cf90
                0x000000008004cfa4                D_8004CFA4 = 0x8004cfa4
                0x000000008004cfb0                D_8004CFB0 = 0x8004cfb0
                0x0000000080071588                D_80071588 = 0x80071588
                0x0000000080071590                D_80071590 = 0x80071590
                0x0000000080071598                D_80071598 = 0x80071598
                0x000000008004cff0                D_8004CFF0 = 0x8004cff0
                0x00000000800715a8                D_800715A8 = 0x800715a8
                0x00000000800715b0                D_800715B0 = 0x800715b0
                0x00000000800715c0                D_800715C0 = 0x800715c0
                0x00000000800c4ea0                D_800C4EA0 = 0x800c4ea0
                0x00000000800c4998                D_800C4998 = 0x800c4998
                0x00000000800c4ef8                D_800C4EF8 = 0x800c4ef8
                0x00000000800c4f78                D_800C4F78 = 0x800c4f78
                0x00000000800c4ee0                D_800C4EE0 = 0x800c4ee0
                0x000000008004d030                D_8004D030 = 0x8004d030
                0x00000000800875a8                D_800875A8 = 0x800875a8
                0x00000000800eb9ec                D_800EB9EC = 0x800eb9ec
                0x00000000800cb4e0                D_800CB4E0 = 0x800cb4e0
                0x00000000800da828                D_800DA828 = 0x800da828
                0x00000000800ebe08                D_800EBE08 = 0x800ebe08
                0x00000000800883e8                D_800883E8 = 0x800883e8
                0x00000000800ebd1c                D_800EBD1C = 0x800ebd1c
                0x0000000080087204                D_80087204 = 0x80087204
                0x000000008008c5e0                D_8008C5E0 = 0x8008c5e0
                0x00000000800715c8                D_800715C8 = 0x800715c8
                0x00000000800715d0                D_800715D0 = 0x800715d0
                0x00000000800715e0                D_800715E0 = 0x800715e0
                0x000000008004d040                D_8004D040 = 0x8004d040
                0x000000008004d050                D_8004D050 = 0x8004d050
                0x000000008004d090                D_8004D090 = 0x8004d090
                0x00000000800715f0                D_800715F0 = 0x800715f0
                0x000000008008c574                D_8008C574 = 0x8008c574
                0x000000008008c578                D_8008C578 = 0x8008c578
                0x000000008008c560                D_8008C560 = 0x8008c560
                0x000000008008c564                D_8008C564 = 0x8008c564
                0x000000008008c596                D_8008C596 = 0x8008c596
                0x0000000080071610                D_80071610 = 0x80071610
                0x000000008008c55c                D_8008C55C = 0x8008c55c
                0x000000008008c58c                D_8008C58C = 0x8008c58c
                0x000000008008c590                D_8008C590 = 0x8008c590
                0x000000008008c568                D_8008C568 = 0x8008c568
                0x000000008008c56c                D_8008C56C = 0x8008c56c
                0x00000000803aabb8                D_803AABB8 = 0x803aabb8
                0x000000008007d1dc                D_8007D1DC = 0x8007d1dc
                0x000000008008c558                D_8008C558 = 0x8008c558
                0x000000008008c538                D_8008C538 = 0x8008c538
                0x000000008004d28c                D_8004D28C = 0x8004d28c
                0x0000000080071618                D_80071618 = 0x80071618
                0x0000000080071620                D_80071620 = 0x80071620
                0x0000000080071628                D_80071628 = 0x80071628
                0x0000000080071638                D_80071638 = 0x80071638
                0x0000000080071640                D_80071640 = 0x80071640
                0x0000000080071648                D_80071648 = 0x80071648
                0x0000000080071650                D_80071650 = 0x80071650
                0x0000000080071658                D_80071658 = 0x80071658
                0x000000008008c580                D_8008C580 = 0x8008c580
                0x0000000080086ef0                D_80086EF0 = 0x80086ef0
                0x0000000080071668                D_80071668 = 0x80071668
                0x0000000080071670                D_80071670 = 0x80071670
                0x000000008004d0a0                D_8004D0A0 = 0x8004d0a0
                0x0000000080071688                D_80071688 = 0x80071688
                0x000000008007bac4                D_8007BAC4 = 0x8007bac4
                0x000000008008c55e                D_8008C55E = 0x8008c55e
                0x0000000080071698                D_80071698 = 0x80071698
                0x000000008007169c                D_8007169C = 0x8007169c
                0x000000008008c5e8                D_8008C5E8 = 0x8008c5e8
                0x000000008008c64c                D_8008C64C = 0x8008c64c
                0x000000008008c654                D_8008C654 = 0x8008c654
                0x000000008008c63c                D_8008C63C = 0x8008c63c
                0x000000008008c648                D_8008C648 = 0x8008c648
                0x000000008008c650                D_8008C650 = 0x8008c650
                0x00000000803a6fc0                D_803A6FC0 = 0x803a6fc0
                0x00000000803a6f40                D_803A6F40 = 0x803a6f40
                0x00000000803a8ea0                D_803A8EA0 = 0x803a8ea0
                0x000000008004d300                D_8004D300 = 0x8004d300
                0x000000008004d2c0                D_8004D2C0 = 0x8004d2c0
                0x00000000803a8c80                D_803A8C80 = 0x803a8c80
                0x00000000803a8c08                D_803A8C08 = 0x803a8c08
                0x00000000800716c0                D_800716C0 = 0x800716c0
                0x00000000803a8cf8                D_803A8CF8 = 0x803a8cf8
                0x000000008004d2cc                D_8004D2CC = 0x8004d2cc
                0x000000008004d2dc                D_8004D2DC = 0x8004d2dc
                0x00000000803a8e0c                D_803A8E0C = 0x803a8e0c
                0x000000008008c748                D_8008C748 = 0x8008c748
                0x00000000803a8dd8                D_803A8DD8 = 0x803a8dd8
                0x00000000803a8d70                D_803A8D70 = 0x803a8d70
                0x000000008008c668                D_8008C668 = 0x8008c668
                0x00000000800716c8                D_800716C8 = 0x800716c8
                0x00000000803a6fb0                D_803A6FB0 = 0x803a6fb0
                0x000000008004d44c                D_8004D44C = 0x8004d44c
                0x000000008008c770                D_8008C770 = 0x8008c770
                0x000000008008c768                D_8008C768 = 0x8008c768
                0x000000008008cf77                D_8008CF77 = 0x8008cf77
                0x00000000803a8f10                D_803A8F10 = 0x803a8f10
                0x00000000803a9090                D_803A9090 = 0x803a9090
                0x00000000803a90e8                D_803A90E8 = 0x803a90e8
                0x00000000803a9140                D_803A9140 = 0x803a9140
                0x000000008008c778                D_8008C778 = 0x8008c778
                0x00000000803aae20                D_803AAE20 = 0x803aae20
                0x000000008004d4a0                D_8004D4A0 = 0x8004d4a0
                0x00000000803a8f78                D_803A8F78 = 0x803a8f78
                0x0000000080399cb0                D_80399CB0 = 0x80399cb0
                0x000000008008cf80                D_8008CF80 = 0x8008cf80
                0x00000000803a9a68                D_803A9A68 = 0x803a9a68
                0x000000008008d010                D_8008D010 = 0x8008d010
                0x00000000803a9a54                D_803A9A54 = 0x803a9a54
                0x00000000803a8ff8                D_803A8FF8 = 0x803a8ff8
                0x000000008004d4f0                D_8004D4F0 = 0x8004d4f0
                0x00000000800716d0                D_800716D0 = 0x800716d0
                0x00000000800716d8                D_800716D8 = 0x800716d8
                0x00000000800716e0                D_800716E0 = 0x800716e0
                0x00000000800716f0                D_800716F0 = 0x800716f0
                0x00000000800716f8                D_800716F8 = 0x800716f8
                0x000000008004d74c                D_8004D74C = 0x8004d74c
                0x000000008008f288                D_8008F288 = 0x8008f288
                0x000000008008f240                D_8008F240 = 0x8008f240
                0x000000008008f250                D_8008F250 = 0x8008f250
                0x000000008008f254                D_8008F254 = 0x8008f254
                0x000000008008f258                D_8008F258 = 0x8008f258
                0x000000008008f25c                D_8008F25C = 0x8008f25c
                0x000000008008f260                D_8008F260 = 0x8008f260
                0x000000008008f264                D_8008F264 = 0x8008f264
                0x000000008008f268                D_8008F268 = 0x8008f268
                0x000000008008f270                D_8008F270 = 0x8008f270
                0x000000008008f2a0                D_8008F2A0 = 0x8008f2a0
                0x000000008008f2a4                D_8008F2A4 = 0x8008f2a4
                0x000000008008f698                D_8008F698 = 0x8008f698
                0x000000008008f5f8                D_8008F5F8 = 0x8008f5f8
                0x00000000800538f8                D_800538F8 = 0x800538f8
                0x00000000800538f4                D_800538F4 = 0x800538f4
                0x000000008008f6a8                D_8008F6A8 = 0x8008f6a8
                0x000000008008f928                D_8008F928 = 0x8008f928
                0x000000008008f610                D_8008F610 = 0x8008f610
                0x0000000080053900                D_80053900 = 0x80053900
                0x00000000800538fc                D_800538FC = 0x800538fc
                0x0000000080053904                D_80053904 = 0x80053904
                0x000000008008fb30                D_8008FB30 = 0x8008fb30
                0x00000000800538f0                D_800538F0 = 0x800538f0
                0x000000008008d090                D_8008D090 = 0x8008d090
                0x00000000800538e8                D_800538E8 = 0x800538e8
                0x00000000800538ec                D_800538EC = 0x800538ec
                0x000000008008f678                D_8008F678 = 0x8008f678
                0x000000008008f620                D_8008F620 = 0x8008f620
                0x000000008008f688                D_8008F688 = 0x8008f688
                0x000000008008f684                D_8008F684 = 0x8008f684
                0x000000008008f68c                D_8008F68C = 0x8008f68c
                0x000000008008f690                D_8008F690 = 0x8008f690
                0x000000008008f934                D_8008F934 = 0x8008f934
                0x00000000800539a8                D_800539A8 = 0x800539a8
                0x000000008008f930                D_8008F930 = 0x8008f930
                0x0000000080071700                D_80071700 = 0x80071700
                0x000000008008f950                D_8008F950 = 0x8008f950
                0x000000008008f964                D_8008F964 = 0x8008f964
                0x000000008008f954                D_8008F954 = 0x8008f954
                0x000000008008f968                D_8008F968 = 0x8008f968
                0x000000008008f96c                D_8008F96C = 0x8008f96c
                0x000000008005397c                D_8005397C = 0x8005397c
                0x000000008005398c                D_8005398C = 0x8005398c
                0x0000000080053990                D_80053990 = 0x80053990
                0x0000000080053980                D_80053980 = 0x80053980
                0x0000000080053978                D_80053978 = 0x80053978
                0x0000000080053988                D_80053988 = 0x80053988
                0x0000000080053984                D_80053984 = 0x80053984
                0x0000000080053970                D_80053970 = 0x80053970
                0x000000008005392c                D_8005392C = 0x8005392c
                0x000000008005394c                D_8005394C = 0x8005394c
                0x000000008008fcb0                D_8008FCB0 = 0x8008fcb0
                0x000000008008fcb4                D_8008FCB4 = 0x8008fcb4
                0x00000000800539a4                D_800539A4 = 0x800539a4
                0x00000000800539d0                D_800539D0 = 0x800539d0
                0x0000000080053994                D_80053994 = 0x80053994
                0x00000000800539bc                D_800539BC = 0x800539bc
                0x000000008008f938                D_8008F938 = 0x8008f938
                0x00000000800539d3                D_800539D3 = 0x800539d3
                0x0000000080071714                D_80071714 = 0x80071714
                0x000000008008f94c                D_8008F94C = 0x8008f94c
                0x000000008008f960                D_8008F960 = 0x8008f960
                0x000000008008f958                D_8008F958 = 0x8008f958
                0x000000008008f95c                D_8008F95C = 0x8008f95c
                0x000000008008f970                D_8008F970 = 0x8008f970
                0x00000000800539b8                D_800539B8 = 0x800539b8
                0x0000000080053974                D_80053974 = 0x80053974
                0x0000000080053976                D_80053976 = 0x80053976
                0x000000008008fcc6                D_8008FCC6 = 0x8008fcc6
                0x000000008008fcc8                D_8008FCC8 = 0x8008fcc8
                0x0000000080053cac                D_80053CAC = 0x80053cac
                0x0000000080053ca4                D_80053CA4 = 0x80053ca4
                0x000000008008fd08                D_8008FD08 = 0x8008fd08
                0x000000008005f0c0                D_8005F0C0 = 0x8005f0c0
                0x000000008005f8f0                D_8005F8F0 = 0x8005f8f0
                0x000000008005f914                D_8005F914 = 0x8005f914
                0x000000008005f8f4                D_8005F8F4 = 0x8005f8f4
                0x000000008008fd14                D_8008FD14 = 0x8008fd14
                0x000000008005f278                D_8005F278 = 0x8005f278
                0x000000008005f928                D_8005F928 = 0x8005f928
                0x000000008005f82c                D_8005F82C = 0x8005f82c
                0x000000008005f5a4                D_8005F5A4 = 0x8005f5a4
                0x000000008005f5bc                D_8005F5BC = 0x8005f5bc
                0x000000008005f8d4                D_8005F8D4 = 0x8005f8d4
                0x000000008005f8e0                D_8005F8E0 = 0x8005f8e0
                0x000000008005f8a4                D_8005F8A4 = 0x8005f8a4
                0x000000008005f8b4                D_8005F8B4 = 0x8005f8b4
                0x000000008005f7fc                D_8005F7FC = 0x8005f7fc
                0x000000008005f4cc                D_8005F4CC = 0x8005f4cc
                0x0000000080053d3c                D_80053D3C = 0x80053d3c
                0x000000008005f0d0                D_8005F0D0 = 0x8005f0d0
                0x000000008005f014                D_8005F014 = 0x8005f014
                0x0000000080071730                D_80071730 = 0x80071730
                0x000000008005f228                D_8005F228 = 0x8005f228
                0x000000008005f240                D_8005F240 = 0x8005f240
                0x0000000080060138                D_80060138 = 0x80060138
                0x000000008005f92c                D_8005F92C = 0x8005f92c
                0x000000008005f93c                D_8005F93C = 0x8005f93c
                0x000000008005f95c                D_8005F95C = 0x8005f95c
                0x000000008005f96c                D_8005F96C = 0x8005f96c
                0x000000008005f97c                D_8005F97C = 0x8005f97c
                0x000000008005f98c                D_8005F98C = 0x8005f98c
                0x000000008008fd28                D_8008FD28 = 0x8008fd28
                0x000000008008fd29                D_8008FD29 = 0x8008fd29
                0x000000008008fd2c                D_8008FD2C = 0x8008fd2c
                0x000000008008fd23                D_8008FD23 = 0x8008fd23
                0x0000000080071764                D_80071764 = 0x80071764
                0x000000008006a014                D_8006A014 = 0x8006a014
                0x000000008006a000                D_8006A000 = 0x8006a000
                0x0000000080092898                D_80092898 = 0x80092898
                0x0000000080092a38                D_80092A38 = 0x80092a38
                0x000000008006a9dc                D_8006A9DC = 0x8006a9dc
                0x000000008006a914                D_8006A914 = 0x8006a914
                0x000000008006a978                D_8006A978 = 0x8006a978
                0x0000000080071780                D_80071780 = 0x80071780
                0x00000000800717c4                D_800717C4 = 0x800717c4
                0x0000000080071814                D_80071814 = 0x80071814
                0x000000008006a918                D_8006A918 = 0x8006a918
                0x000000008006a920                D_8006A920 = 0x8006a920
                0x000000008006aaa4                D_8006AAA4 = 0x8006aaa4
                0x0000000080071864                D_80071864 = 0x80071864
                0x00000000800718b4                D_800718B4 = 0x800718b4
                0x0000000080071904                D_80071904 = 0x80071904
                0x000000008005f9a0                D_8005F9A0 = 0x8005f9a0
                0x000000008008fd30                D_8008FD30 = 0x8008fd30
                0x000000008008fd58                D_8008FD58 = 0x8008fd58
                0x000000008007194c                D_8007194C = 0x8007194c
                0x000000008007198c                D_8007198C = 0x8007198c
                0x000000008008fd50                D_8008FD50 = 0x8008fd50
                0x000000008008fd31                D_8008FD31 = 0x8008fd31
                0x00000000800904e0                D_800904E0 = 0x800904e0
                0x0000000080090398                D_80090398 = 0x80090398
                0x000000008008fd52                D_8008FD52 = 0x8008fd52
                0x0000000080090460                D_80090460 = 0x80090460
                0x00000000800903c8                D_800903C8 = 0x800903c8
                0x000000008009045f                D_8009045F = 0x8009045f
                0x00000000800905cc                D_800905CC = 0x800905cc
                0x000000008005f9b8                D_8005F9B8 = 0x8005f9b8
                0x0000000080092850                D_80092850 = 0x80092850
                0x0000000080090e7c                D_80090E7C = 0x80090e7c
                0x000000008005fb80                D_8005FB80 = 0x8005fb80
                0x00000000800719d0                D_800719D0 = 0x800719d0
                0x000000008005fa08                D_8005FA08 = 0x8005fa08
                0x000000008005fa10                D_8005FA10 = 0x8005fa10
                0x000000008005fa18                D_8005FA18 = 0x8005fa18
                0x000000008005f9f8                D_8005F9F8 = 0x8005f9f8
                0x0000000080090618                D_80090618 = 0x80090618
                0x000000008005fa20                D_8005FA20 = 0x8005fa20
                0x000000008005fa30                D_8005FA30 = 0x8005fa30
                0x0000000080092852                D_80092852 = 0x80092852
                0x0000000080092864                D_80092864 = 0x80092864
                0x000000008005fa90                D_8005FA90 = 0x8005fa90
                0x0000000080092860                D_80092860 = 0x80092860
                0x0000000080092ac0                D_80092AC0 = 0x80092ac0
                0x0000000080092aa0                D_80092AA0 = 0x80092aa0
                0x0000000080092a90                D_80092A90 = 0x80092a90
                0x000000008005fb40                D_8005FB40 = 0x8005fb40
                0x000000008005fb70                D_8005FB70 = 0x8005fb70
                0x0000000080092a3a                D_80092A3A = 0x80092a3a
                0x000000008005fb74                D_8005FB74 = 0x8005fb74
                0x0000000080071a50                D_80071A50 = 0x80071a50
                0x0000000080092d30                D_80092D30 = 0x80092d30
                0x0000000080092d36                D_80092D36 = 0x80092d36
                0x0000000080092d34                D_80092D34 = 0x80092d34
                0x0000000080092cc0                D_80092CC0 = 0x80092cc0
                0x000000008006e4c0                D_8006E4C0 = 0x8006e4c0
                0x000000008006f3f8                D_8006F3F8 = 0x8006f3f8
                0x0000000080092d20                D_80092D20 = 0x80092d20
                0x000000008006f3c0                D_8006F3C0 = 0x8006f3c0
                0x0000000080092d28                D_80092D28 = 0x80092d28
                0x0000000080092d1c                D_80092D1C = 0x80092d1c
                0x000000008006e4b4                D_8006E4B4 = 0x8006e4b4
                0x000000008006e4b8                D_8006E4B8 = 0x8006e4b8
                0x0000000080092d0a                D_80092D0A = 0x80092d0a
                0x0000000080092d08                D_80092D08 = 0x80092d08
                0x0000000080092d0e                D_80092D0E = 0x80092d0e
                0x0000000080092cc8                D_80092CC8 = 0x80092cc8
                0x000000008006ac90                D_8006AC90 = 0x8006ac90
                0x000000008006ac70                D_8006AC70 = 0x8006ac70
                0x0000000080092d10                D_80092D10 = 0x80092d10
                0x0000000080092d12                D_80092D12 = 0x80092d12
                0x000000008006db88                D_8006DB88 = 0x8006db88
                0x000000008006e128                D_8006E128 = 0x8006e128
                0x000000008006cc88                D_8006CC88 = 0x8006cc88
                0x0000000080092d1a                D_80092D1A = 0x80092d1a
                0x000000008006e288                D_8006E288 = 0x8006e288
                0x000000008006e298                D_8006E298 = 0x8006e298
                0x0000000080092a92                D_80092A92 = 0x80092a92
                0x0000000080071a80                D_80071A80 = 0x80071a80
                0x0000000080092d0f                D_80092D0F = 0x80092d0f
                0x0000000080092d0c                D_80092D0C = 0x80092d0c
                0x000000008006e2a8                D_8006E2A8 = 0x8006e2a8
                0x000000008006e36c                D_8006E36C = 0x8006e36c
                0x000000008006e33c                D_8006E33C = 0x8006e33c
                0x000000008006e2ec                D_8006E2EC = 0x8006e2ec
                0x000000008006e3f0                D_8006E3F0 = 0x8006e3f0
                0x000000008006e460                D_8006E460 = 0x8006e460
                0x00000000a430000c                D_A430000C = 0xa430000c
                0x0000000080093fb0                D_80093FB0 = 0x80093fb0
                0x0000000080093fb8                D_80093FB8 = 0x80093fb8
                0x0000000080093fc0                D_80093FC0 = 0x80093fc0
                0x0000000080093fc8                D_80093FC8 = 0x80093fc8
                0x0000000080093fcc                D_80093FCC = 0x80093fcc
                0x0000000080093fd0                D_80093FD0 = 0x80093fd0
                0x0000000080093fd8                D_80093FD8 = 0x80093fd8
                0x0000000080094190                D_80094190 = 0x80094190
                0x00000000800951f0                D_800951F0 = 0x800951f0
                0x0000000080095620                D_80095620 = 0x80095620
                0x0000000080071b40                D_80071B40 = 0x80071b40
                0x0000000080071b70                D_80071B70 = 0x80071b70
                0x0000000080071b78                D_80071B78 = 0x80071b78
                0x0000000080071b90                D_80071B90 = 0x80071b90
                0x0000000080071ba0                D_80071BA0 = 0x80071ba0
                0x0000000080071be0                D_80071BE0 = 0x80071be0
                0x0000000080071be8                D_80071BE8 = 0x80071be8
                0x0000000080071bb0                D_80071BB0 = 0x80071bb0
                0x0000000080071c08                D_80071C08 = 0x80071c08
                0x0000000080071c10                D_80071C10 = 0x80071c10
                0x0000000080071d94                D_80071D94 = 0x80071d94
                0x0000000080071df4                D_80071DF4 = 0x80071df4
                0x0000000080071e44                D_80071E44 = 0x80071e44
                0x0000000080071e50                D_80071E50 = 0x80071e50
                0x0000000080071e58                D_80071E58 = 0x80071e58
                0x0000000080071e68                D_80071E68 = 0x80071e68
                0x0000000080071e90                D_80071E90 = 0x80071e90
                0x0000000080071e98                D_80071E98 = 0x80071e98
                0x0000000080095210                D_80095210 = 0x80095210
                0x0000000080095310                D_80095310 = 0x80095310
                0x0000000080071ea0                D_80071EA0 = 0x80071ea0
                0x0000000080071ec0                D_80071EC0 = 0x80071ec0
                0x0000000080095850                D_80095850 = 0x80095850
                0x00000000a4300008                D_A4300008 = 0xa4300008
                0x0000000080070a04                D_80070A04 = 0x80070a04
                0x00000000a4600014                D_A4600014 = 0xa4600014
                0x00000000a460001c                D_A460001C = 0xa460001c
                0x00000000a4600020                D_A4600020 = 0xa4600020
                0x00000000a4600018                D_A4600018 = 0xa4600018
                0x0000000080071ef0                D_80071EF0 = 0x80071ef0
                0x00000000a4400004                D_A4400004 = 0xa4400004
                0x00000000a4400008                D_A4400008 = 0xa4400008
                0x0000000080071f44                D_80071F44 = 0x80071f44
                0x0000000080071f2c                D_80071F2C = 0x80071f2c
                0x0000000080072020                D_80072020 = 0x80072020
                0x0000000080072038                D_80072038 = 0x80072038
                0x0000000080072040                D_80072040 = 0x80072040
                0x0000000080072068                D_80072068 = 0x80072068
                0x0000000080070d80                D_80070D80 = 0x80070d80
                0x0000000080072080                D_80072080 = 0x80072080
                0x0000000080070d7e                D_80070D7E = 0x80070d7e
                0x0000000080072090                D_80072090 = 0x80072090
                0x0000000080070c80                D_80070C80 = 0x80070c80
                0x00000000800720e0                D_800720E0 = 0x800720e0
                0x0000000080072264                D_80072264 = 0x80072264
                0x00000000800722b8                D_800722B8 = 0x800722b8
                0x0000000080072318                D_80072318 = 0x80072318
                0x0000000080072320                D_80072320 = 0x80072320
                0x0000000080070dc0                D_80070DC0 = 0x80070dc0
                0x0000000080095648                D_80095648 = 0x80095648
                0x00000000a5000510                D_A5000510 = 0xa5000510
                0x0000000080072380                D_80072380 = 0x80072380
                0x0000000080072378                D_80072378 = 0x80072378
                0x000000008007237c                D_8007237C = 0x8007237c
                0x0000000080072330                D_80072330 = 0x80072330
                0x0000000080072388                D_80072388 = 0x80072388
                0x0000000080072390                D_80072390 = 0x80072390
                0x00000000800723c0                D_800723C0 = 0x800723c0
                0x00000000800723c8                D_800723C8 = 0x800723c8
                0x000000008010004c                displayTitleScreen = 0x8010004c
                0x000000008010009c                func_8010009C = 0x8010009c
                0x000000008010008c                func_8010008C = 0x8010008c
                0x0000000080100000                func_80100000 = 0x80100000
OUTPUT(build/quest64.us.elf elf32-tradbigmips)
